libmozjs-24.so:_Z10JS_AtomKeyP6JSAtom
libmozjs-24.so:_Z10JS_MaybeGCP9JSContext
libmozjs-24.so:_Z10JS_SetTrapP9JSContextP8JSScriptPhPF12JSTrapStatusS0_S2_S3_PN2JS5ValueES6_ES6_
libmozjs-24.so:_Z10JS_reallocP9JSContextPvm
libmozjs-24.so:_Z11JS_CallOncePiPFivE
libmozjs-24.so:_Z11JS_GetClassP8JSObject
libmozjs-24.so:_Z11JS_IsNativeP8JSObject
libmozjs-24.so:_Z11JS_ShutDownv
libmozjs-24.so:_Z11JS_smprintfPKcz
libmozjs-24.so:_Z11JS_snprintfPcjPKcz
libmozjs-24.so:_Z11JS_sxprintfPFiPvPKcjES_S1_z
libmozjs-24.so:_Z11js_StopPerfv
libmozjs-24.so:_Z12JS_AnchorPtrPv
libmozjs-24.so:_Z12JS_CharsToIdP9JSContextN2JS12TwoByteCharsEPl
libmozjs-24.so:_Z12JS_ClearTrapP9JSContextP8JSScriptPhPPF12JSTrapStatusS0_S2_S3_PN2JS5ValueES6_ES7_
libmozjs-24.so:_Z12JS_EnumerateP9JSContextP8JSObject
libmozjs-24.so:_Z12JS_GetParentP8JSObject
libmozjs-24.so:_Z12JS_IdToValueP9JSContextlPN2JS5ValueE
libmozjs-24.so:_Z12JS_IndexToIdP9JSContextjPl
libmozjs-24.so:_Z12JS_InitClassP9JSContextP8JSObjectS2_P7JSClassPFiS0_jPN2JS5ValueEEjPK14JSPropertySpecPK14JSFunctionSpecSC_SF_
libmozjs-24.so:_Z12JS_IsRunningP9JSContext
libmozjs-24.so:_Z12JS_NewObjectP9JSContextP7JSClassP8JSObjectS4_
libmozjs-24.so:_Z12JS_ParseJSONP9JSContextPKtjN2JS13MutableHandleINS3_5ValueEEE
libmozjs-24.so:_Z12JS_ReadBytesP23JSStructuredCloneReaderPvm
libmozjs-24.so:_Z12JS_SameValueP9JSContextN2JS5ValueES2_Pi
libmozjs-24.so:_Z12JS_SetParentP9JSContextP8JSObjectS2_
libmozjs-24.so:_Z12JS_StringifyP9JSContextPN2JS5ValueEP8JSObjectS2_PFiPKtjPvES8_
libmozjs-24.so:_Z12JS_ValueToIdP9JSContextN2JS5ValueEPl
libmozjs-24.so:_Z12JS_WrapValueP9JSContextPN2JS5ValueE
libmozjs-24.so:_Z12JS_vsmprintfPKcP13__va_list_tag
libmozjs-24.so:_Z12JS_vsnprintfPcjPKcP13__va_list_tag
libmozjs-24.so:_Z12JS_vsxprintfPFiPvPKcjES_S1_P13__va_list_tag
libmozjs-24.so:_Z12js_StartPerfv
libmozjs-24.so:_Z13JS_EndRequestP9JSContext
libmozjs-24.so:_Z13JS_GetElementP9JSContextP8JSObjectjPN2JS5ValueE
libmozjs-24.so:_Z13JS_GetLinePCsP9JSContextP8JSScriptjjPjPS3_PPPh
libmozjs-24.so:_Z13JS_GetOptionsP9JSContext
libmozjs-24.so:_Z13JS_GetPrivateP8JSObject
libmozjs-24.so:_Z13JS_GetRuntimeP9JSContext
libmozjs-24.so:_Z13JS_GetVersionP9JSContext
libmozjs-24.so:_Z13JS_HasElementP9JSContextP8JSObjectjPi
libmozjs-24.so:_Z13JS_IdArrayGetP9JSContextP9JSIdArrayi
libmozjs-24.so:_Z13JS_InstanceOfP9JSContextP8JSObjectP7JSClassPN2JS5ValueE
libmozjs-24.so:_Z13JS_NewContextP9JSRuntimem
libmozjs-24.so:_Z13JS_NewRuntimej18JSUseHelperThreads
libmozjs-24.so:_Z13JS_SetElementP9JSContextP8JSObjectjPN2JS5ValueE
libmozjs-24.so:_Z13JS_SetOptionsP9JSContextj
libmozjs-24.so:_Z13JS_SetPrivateP8JSObjectPv
libmozjs-24.so:_Z13JS_TracerInitP8JSTracerP9JSRuntimePFvS0_PPv13JSGCTraceKindE
libmozjs-24.so:_Z13JS_WrapObjectP9JSContextPP8JSObject
libmozjs-24.so:_Z13JS_WriteBytesP23JSStructuredCloneWriterPKvm
libmozjs-24.so:_Z13js_RemoveRootP9JSRuntimePv
libmozjs-24.so:_Z14JS_CheckAccessP9JSContextP8JSObjectl12JSAccessModePN2JS5ValueEPj
libmozjs-24.so:_Z14JS_CloneObjectP9JSContextP8JSObjectS2_S2_
libmozjs-24.so:_Z14JS_ComputeThisP9JSContextPN2JS5ValueE
libmozjs-24.so:_Z14JS_ConvertStubP9JSContextN2JS6HandleIP8JSObjectEE6JSTypeNS1_13MutableHandleINS1_5ValueEEE
libmozjs-24.so:_Z14JS_DecodeBytesP9JSContextPKcmPtPm
libmozjs-24.so:_Z14JS_DumpProfilePKcS0_
libmozjs-24.so:_Z14JS_GetNaNValueP9JSContext
libmozjs-24.so:_Z14JS_GetObjectIdP9JSContextP8JSObjectPl
libmozjs-24.so:_Z14JS_GetPropertyP9JSContextP8JSObjectPKcPN2JS5ValueE
libmozjs-24.so:_Z14JS_GetTypeNameP9JSContext6JSType
libmozjs-24.so:_Z14JS_HasInstanceP9JSContextP8JSObjectN2JS5ValueEPi
libmozjs-24.so:_Z14JS_HasPropertyP9JSContextP8JSObjectPKcPi
libmozjs-24.so:_Z14JS_InitReflectP9JSContextP8JSObject
libmozjs-24.so:_Z14JS_IsInRequestP9JSRuntime
libmozjs-24.so:_Z14JS_IsInt8ArrayP8JSObject
libmozjs-24.so:_Z14JS_NewFunctionP9JSContextPFiS0_jPN2JS5ValueEEjjP8JSObjectPKc
libmozjs-24.so:_Z14JS_NewUCStringP9JSContextPtm
libmozjs-24.so:_Z14JS_ReportErrorP9JSContextPKcz
libmozjs-24.so:_Z14JS_ResolveStubP9JSContextN2JS6HandleIP8JSObjectEENS2_IlEE
libmozjs-24.so:_Z14JS_SetCallHookP9JSRuntimePFPvP9JSContext18JSAbstractFramePtrbiPiS1_ES1_
libmozjs-24.so:_Z14JS_SetPropertyP9JSContextP8JSObjectPKcPN2JS5ValueE
libmozjs-24.so:_Z14JS_TypeOfValueP9JSContextN2JS5ValueE
libmozjs-24.so:_Z14js_DateGetDateP9JSContextP8JSObject
libmozjs-24.so:_Z14js_DateGetYearP9JSContextP8JSObject
libmozjs-24.so:_Z14js_DateIsValidP8JSObject
libmozjs-24.so:_Z14js_GetSCOffsetP23JSStructuredCloneWriter
libmozjs-24.so:_Z15JS_AddValueRootP9JSContextPN2JS5ValueE
libmozjs-24.so:_Z15JS_BeginRequestP9JSContext
libmozjs-24.so:_Z15JS_BindCallableP9JSContextP8JSObjectS2_
libmozjs-24.so:_Z15JS_CallFunctionP9JSContextP8JSObjectP10JSFunctionjPN2JS5ValueES7_
libmozjs-24.so:_Z15JS_CallIdTracerP8JSTracerPlPKc
libmozjs-24.so:_Z15JS_ConvertValueP9JSContextN2JS5ValueE6JSTypePS2_
libmozjs-24.so:_Z15JS_DecodeScriptP9JSContextPKvjP12JSPrincipalsS4_
libmozjs-24.so:_Z15JS_DefaultValueP9JSContextP8JSObject6JSTypePN2JS5ValueE
libmozjs-24.so:_Z15JS_DefineObjectP9JSContextP8JSObjectPKcP7JSClassS2_j
libmozjs-24.so:_Z15JS_DumpBytecodeP9JSContextP8JSScript
libmozjs-24.so:_Z15JS_DumpPCCountsP9JSContextP8JSScript
libmozjs-24.so:_Z15JS_EncodeScriptP9JSContextP8JSScriptPj
libmozjs-24.so:_Z15JS_EncodeStringP9JSContextP8JSString
libmozjs-24.so:_Z15JS_FreezeObjectP9JSContextP8JSObject
libmozjs-24.so:_Z15JS_GetDebugModeP9JSContext
libmozjs-24.so:_Z15JS_GetPrototypeP9JSContextP8JSObjectPS2_
libmozjs-24.so:_Z15JS_InternStringP9JSContextPKc
libmozjs-24.so:_Z15JS_IsExtensibleP8JSObject
libmozjs-24.so:_Z15JS_IsIdentifierP9JSContextP8JSStringPi
libmozjs-24.so:_Z15JS_IsInt16ArrayP8JSObject
libmozjs-24.so:_Z15JS_IsInt32ArrayP8JSObject
libmozjs-24.so:_Z15JS_IsUint8ArrayP8JSObject
libmozjs-24.so:_Z15JS_LooselyEqualP9JSContextN2JS5ValueES2_Pi
libmozjs-24.so:_Z15JS_NewInt8ArrayP9JSContextj
libmozjs-24.so:_Z15JS_NextPropertyP9JSContextP8JSObjectPl
libmozjs-24.so:_Z15JS_ObjectIsDateP9JSContextP8JSObject
libmozjs-24.so:_Z15JS_PropertyStubP9JSContextN2JS6HandleIP8JSObjectEENS2_IlEENS1_13MutableHandleINS1_5ValueEEE
libmozjs-24.so:_Z15JS_SetDebugModeP9JSContexti
libmozjs-24.so:_Z15JS_SetInterruptP9JSRuntimePF12JSTrapStatusP9JSContextP8JSScriptPhPN2JS5ValueEPvESA_
libmozjs-24.so:_Z15JS_SetPrototypeP9JSContextP8JSObjectS2_
libmozjs-24.so:_Z15JS_SetThrowHookP9JSRuntimePF12JSTrapStatusP9JSContextP8JSScriptPhPN2JS5ValueEPvESA_
libmozjs-24.so:_Z15JS_TraceRuntimeP8JSTracer
libmozjs-24.so:_Z15JS_ValueToInt32P9JSContextN2JS5ValueEPi
libmozjs-24.so:_Z15JS_ValueToInt64P9JSContextN2JS5ValueEPl
libmozjs-24.so:_Z15js_DateGetHoursP9JSContextP8JSObject
libmozjs-24.so:_Z15js_DateGetMonthP9JSContextP8JSObject
libmozjs-24.so:_Z16JS_AddObjectRootP9JSContextPP8JSObject
libmozjs-24.so:_Z16JS_AddStringRootP9JSContextPP8JSString
libmozjs-24.so:_Z16JS_ArrayIteratorP9JSContextjPN2JS5ValueE
libmozjs-24.so:_Z16JS_CompileScriptP9JSContextP8JSObjectPKcmS4_j
libmozjs-24.so:_Z16JS_ConcatStringsP9JSContextP8JSStringS2_
libmozjs-24.so:_Z16JS_DefineElementP9JSContextP8JSObjectjN2JS5ValueEPFiS0_NS3_6HandleIS2_EENS5_IlEENS3_13MutableHandleIS4_EEEPFiS0_S6_S7_iS9_Ej
libmozjs-24.so:_Z16JS_DeleteElementP9JSContextP8JSObjectj
libmozjs-24.so:_Z16JS_DoubleIsInt32dPi
libmozjs-24.so:_Z16JS_DoubleToInt32d
libmozjs-24.so:_Z16JS_EnumerateStubP9JSContextN2JS6HandleIP8JSObjectEE
libmozjs-24.so:_Z16JS_ExecuteRegExpP9JSContextP8JSObjectS2_PtmPmiPN2JS5ValueE
libmozjs-24.so:_Z16JS_ExecuteScriptP9JSContextP8JSObjectP8JSScriptPN2JS5ValueE
libmozjs-24.so:_Z16JS_FlattenStringP9JSContextP8JSString
libmozjs-24.so:_Z16JS_GetFunctionIdP10JSFunction
libmozjs-24.so:_Z16JS_GetUCPropertyP9JSContextP8JSObjectPKtmPN2JS5ValueE
libmozjs-24.so:_Z16JS_HasUCPropertyP9JSContextP8JSObjectPKtmPi
libmozjs-24.so:_Z16JS_IdArrayLengthP9JSContextP9JSIdArray
libmozjs-24.so:_Z16JS_InternStringNP9JSContextPKcm
libmozjs-24.so:_Z16JS_IsArrayObjectP9JSContextP8JSObject
libmozjs-24.so:_Z16JS_IsConstructorP10JSFunction
libmozjs-24.so:_Z16JS_IsDeadWrapperP8JSObject
libmozjs-24.so:_Z16JS_IsUint16ArrayP8JSObject
libmozjs-24.so:_Z16JS_IsUint32ArrayP8JSObject
libmozjs-24.so:_Z16JS_LookupElementP9JSContextP8JSObjectjPN2JS5ValueE
libmozjs-24.so:_Z16JS_NewDateObjectP9JSContextiiiiii
libmozjs-24.so:_Z16JS_NewInt16ArrayP9JSContextj
libmozjs-24.so:_Z16JS_NewInt32ArrayP9JSContextj
libmozjs-24.so:_Z16JS_NewUint8ArrayP9JSContextj
libmozjs-24.so:_Z16JS_ReportWarningP9JSContextPKcz
libmozjs-24.so:_Z16JS_SetGCCallbackP9JSRuntimePFvS0_10JSGCStatusE
libmozjs-24.so:_Z16JS_SetSourceHookP9JSRuntimePFbP9JSContextN2JS6HandleIP8JSScriptEEPPtPjE
libmozjs-24.so:_Z16JS_SetUCPropertyP9JSContextP8JSObjectPKtmPN2JS5ValueE
libmozjs-24.so:_Z16JS_SetWatchPointP9JSContextP8JSObjectlPFiS0_S2_lN2JS5ValueEPS4_PvES2_
libmozjs-24.so:_Z16JS_StopProfilingPKc
libmozjs-24.so:_Z16JS_StrictlyEqualP9JSContextN2JS5ValueES2_Pi
libmozjs-24.so:_Z16JS_ToggleOptionsP9JSContextj
libmozjs-24.so:_Z16JS_TraceChildrenP8JSTracerPv13JSGCTraceKind
libmozjs-24.so:_Z16JS_ValueToNumberP9JSContextN2JS5ValueEPd
libmozjs-24.so:_Z16JS_ValueToObjectP9JSContextN2JS5ValueEPP8JSObject
libmozjs-24.so:_Z16JS_ValueToSourceP9JSContextN2JS5ValueE
libmozjs-24.so:_Z16JS_ValueToStringP9JSContextN2JS5ValueE
libmozjs-24.so:_Z16JS_ValueToUint16P9JSContextN2JS5ValueEPt
libmozjs-24.so:_Z16JS_ValueToUint64P9JSContextN2JS5ValueEPm
libmozjs-24.so:_Z16JS_smprintf_freePc
libmozjs-24.so:_Z16js_DumpBacktraceP9JSContext
libmozjs-24.so:_Z16js_NewDateObjectP9JSContextiiiiii
libmozjs-24.so:_Z16js_ObjectClassIsP9JSContextN2JS6HandleIP8JSObjectEEN2js12ESClassValueE
libmozjs-24.so:_Z16js_SrcNoteLengthPh
libmozjs-24.so:_Z17JS_ClearInterruptP9JSRuntimePPF12JSTrapStatusP9JSContextP8JSScriptPhPN2JS5ValueEPvEPSA_
libmozjs-24.so:_Z17JS_CompareStringsP9JSContextP8JSStringS2_Pi
libmozjs-24.so:_Z17JS_DefineFunctionP9JSContextP8JSObjectPKcPFiS0_jPN2JS5ValueEEjj
libmozjs-24.so:_Z17JS_DefinePropertyP9JSContextP8JSObjectPKcN2JS5ValueEPFiS0_NS5_6HandleIS2_EENS7_IlEENS5_13MutableHandleIS6_EEEPFiS0_S8_S9_iSB_Ej
libmozjs-24.so:_Z17JS_DeleteElement2P9JSContextP8JSObjectjPN2JS5ValueE
libmozjs-24.so:_Z17JS_DeletePropertyP9JSContextP8JSObjectPKc
libmozjs-24.so:_Z17JS_DestroyContextP9JSContext
libmozjs-24.so:_Z17JS_DestroyIdArrayP9JSContextP9JSIdArray
libmozjs-24.so:_Z17JS_DestroyRuntimeP9JSRuntime
libmozjs-24.so:_Z17JS_DoubleToUint32d
libmozjs-24.so:_Z17JS_DropPrincipalsP9JSRuntimeP12JSPrincipals
libmozjs-24.so:_Z17JS_EnumerateStateP9JSContextN2JS6HandleIP8JSObjectEE11JSIterateOpNS1_13MutableHandleINS1_5ValueEEENS7_IlEE
libmozjs-24.so:_Z17JS_EvaluateScriptP9JSContextP8JSObjectPKcjS4_jPN2JS5ValueE
libmozjs-24.so:_Z17JS_GetArrayLengthP9JSContextP8JSObjectPj
libmozjs-24.so:_Z17JS_GetClassObjectP9JSContextP8JSObject10JSProtoKeyPS2_
libmozjs-24.so:_Z17JS_GetConstructorP9JSContextP8JSObject
libmozjs-24.so:_Z17JS_GetEmptyStringP9JSRuntime
libmozjs-24.so:_Z17JS_GetGCParameterP9JSRuntime12JSGCParamKey
libmozjs-24.so:_Z17JS_GetRegExpFlagsP9JSContextP8JSObject
libmozjs-24.so:_Z17JS_HoldPrincipalsP12JSPrincipals
libmozjs-24.so:_Z17JS_InternJSStringP9JSContextP8JSString
libmozjs-24.so:_Z17JS_InternUCStringP9JSContextPKt
libmozjs-24.so:_Z17JS_IsFloat32ArrayP8JSObject
libmozjs-24.so:_Z17JS_IsFloat64ArrayP8JSObject
libmozjs-24.so:_Z17JS_IsGlobalObjectP8JSObject
libmozjs-24.so:_Z17JS_LineNumberToPCP9JSContextP8JSScriptj
libmozjs-24.so:_Z17JS_LookupPropertyP9JSContextP8JSObjectPKcPN2JS5ValueE
libmozjs-24.so:_Z17JS_NewArrayBufferP9JSContextj
libmozjs-24.so:_Z17JS_NewArrayObjectP9JSContextiPN2JS5ValueE
libmozjs-24.so:_Z17JS_NewStringCopyNP9JSContextPKcm
libmozjs-24.so:_Z17JS_NewStringCopyZP9JSContextPKc
libmozjs-24.so:_Z17JS_NewUint16ArrayP9JSContextj
libmozjs-24.so:_Z17JS_NewUint32ArrayP9JSContextj
libmozjs-24.so:_Z17JS_ObjectIsRegExpP9JSContextP8JSObject
libmozjs-24.so:_Z17JS_PCToLineNumberP9JSContextP8JSScriptPh
libmozjs-24.so:_Z17JS_PauseProfilersPKc
libmozjs-24.so:_Z17JS_ReadTypedArrayP23JSStructuredCloneReaderPN2JS5ValueE
libmozjs-24.so:_Z17JS_ReadUint32PairP23JSStructuredCloneReaderPjS1_
libmozjs-24.so:_Z17JS_SaveFrameChainP9JSContext
libmozjs-24.so:_Z17JS_SetArrayLengthP9JSContextP8JSObjectj
libmozjs-24.so:_Z17JS_SetExecuteHookP9JSRuntimePFPvP9JSContext18JSAbstractFramePtrbiPiS1_ES1_
libmozjs-24.so:_Z17JS_SetGCParameterP9JSRuntime12JSGCParamKeyj
libmozjs-24.so:_Z17JS_SetProtoCalledP9JSContext
libmozjs-24.so:_Z17JS_SetRegExpInputP9JSContextP8JSObjectP8JSStringi
libmozjs-24.so:_Z17JS_StartProfilingPKc
libmozjs-24.so:_Z17JS_ValueToBooleanP9JSContextN2JS5ValueEPi
libmozjs-24.so:_Z17JS_sprintf_appendPcPKcz
libmozjs-24.so:_Z17js_DateGetMinutesP9JSContextP8JSObject
libmozjs-24.so:_Z17js_DateGetSecondsP8JSObject
libmozjs-24.so:_Z17js_InitProxyClassP9JSContextN2JS6HandleIP8JSObjectEE
libmozjs-24.so:_Z18JS_CallValueTracerP8JSTracerPN2JS5ValueEPKc
libmozjs-24.so:_Z18JS_ClearDateCachesP9JSContext
libmozjs-24.so:_Z18JS_ClearWatchPointP9JSContextP8JSObjectlPPFiS0_S2_lN2JS5ValueEPS4_PvEPS2_
libmozjs-24.so:_Z18JS_CompileFunctionP9JSContextP8JSObjectPKcjPS4_S4_mS4_j
libmozjs-24.so:_Z18JS_CompileUCScriptP9JSContextP8JSObjectPKtmPKcj
libmozjs-24.so:_Z18JS_ContextIteratorP9JSRuntimePP9JSContext
libmozjs-24.so:_Z18JS_DecompileScriptP9JSContextP8JSScriptPKcj
libmozjs-24.so:_Z18JS_DefineFunctionsP9JSContextP8JSObjectPK14JSFunctionSpec
libmozjs-24.so:_Z18JS_DeleteProperty2P9JSContextP8JSObjectPKcPN2JS5ValueE
libmozjs-24.so:_Z18JS_GetDataViewDataP8JSObject
libmozjs-24.so:_Z18JS_GetPropertyByIdP9JSContextP8JSObjectlPN2JS5ValueE
libmozjs-24.so:_Z18JS_GetRegExpSourceP9JSContextP8JSObject
libmozjs-24.so:_Z18JS_GetReservedSlotP8JSObjectj
libmozjs-24.so:_Z18JS_GetStringCharsZP9JSContextP8JSString
libmozjs-24.so:_Z18JS_GetStringLengthP8JSString
libmozjs-24.so:_Z18JS_GetZoneUserDataPN2JS4ZoneE
libmozjs-24.so:_Z18JS_HasPropertyByIdP9JSContextP8JSObjectlPi
libmozjs-24.so:_Z18JS_InternUCStringNP9JSContextPKtm
libmozjs-24.so:_Z18JS_LocalNameToAtomm
libmozjs-24.so:_Z18JS_NewFloat32ArrayP9JSContextj
libmozjs-24.so:_Z18JS_NewFloat64ArrayP9JSContextj
libmozjs-24.so:_Z18JS_NewFunctionByIdP9JSContextPFiS0_jPN2JS5ValueEEjjP8JSObjectl
libmozjs-24.so:_Z18JS_NewGlobalObjectP9JSContextP7JSClassP12JSPrincipalsRKN2JS18CompartmentOptionsE
libmozjs-24.so:_Z18JS_NewRegExpObjectP9JSContextP8JSObjectPcmj
libmozjs-24.so:_Z18JS_RemoveValueRootP9JSContextPN2JS5ValueE
libmozjs-24.so:_Z18JS_ResumeProfilersPKc
libmozjs-24.so:_Z18JS_SetGlobalObjectP9JSContextP8JSObject
libmozjs-24.so:_Z18JS_SetJitHardeningP9JSRuntimei
libmozjs-24.so:_Z18JS_SetPropertyByIdP9JSContextP8JSObjectlPN2JS5ValueE
libmozjs-24.so:_Z18JS_SetReservedSlotP8JSObjectjN2JS5ValueE
libmozjs-24.so:_Z18JS_SetZoneUserDataPN2JS4ZoneEPv
libmozjs-24.so:_Z18JS_SplicePrototypeP9JSContextP8JSObjectS2_
libmozjs-24.so:_Z18JS_StringToVersionPKc
libmozjs-24.so:_Z18JS_StructuredCloneP9JSContextN2JS5ValueEPS2_PK26JSStructuredCloneCallbacksPv
libmozjs-24.so:_Z18JS_ValueToFunctionP9JSContextN2JS5ValueE
libmozjs-24.so:_Z18JS_VersionToString9JSVersion
libmozjs-24.so:_Z18JS_WriteTypedArrayP23JSStructuredCloneWriterN2JS5ValueE
libmozjs-24.so:_Z18JS_WriteUint32PairP23JSStructuredCloneWriterjj
libmozjs-24.so:_Z18JS_vsprintf_appendPcPKcP13__va_list_tag
libmozjs-24.so:_Z18js_GetErrorMessagePvPKcj
libmozjs-24.so:_Z18js_ObjectClassNameP9JSContextN2JS6HandleIP8JSObjectEE
libmozjs-24.so:_Z19JS_CallFunctionNameP9JSContextP8JSObjectPKcjPN2JS5ValueES7_
libmozjs-24.so:_Z19JS_CallHeapIdTracerP8JSTracerPN2JS4HeapIlEEPKc
libmozjs-24.so:_Z19JS_CallObjectTracerP8JSTracerPP8JSObjectPKc
libmozjs-24.so:_Z19JS_CallScriptTracerP8JSTracerPP8JSScriptPKc
libmozjs-24.so:_Z19JS_CallStringTracerP8JSTracerPP8JSStringPKc
libmozjs-24.so:_Z19JS_ClearScriptTrapsP9JSRuntimeP8JSScript
libmozjs-24.so:_Z19JS_ConvertArgumentsP9JSContextjPN2JS5ValueEPKcz
libmozjs-24.so:_Z19JS_DeepFreezeObjectP9JSContextP8JSObject
libmozjs-24.so:_Z19JS_DefinePropertiesP9JSContextP8JSObjectPK14JSPropertySpec
libmozjs-24.so:_Z19JS_DefineUCFunctionP9JSContextP8JSObjectPKtmPFiS0_jPN2JS5ValueEEjj
libmozjs-24.so:_Z19JS_DefineUCPropertyP9JSContextP8JSObjectPKtmN2JS5ValueEPFiS0_NS5_6HandleIS2_EENS7_IlEENS5_13MutableHandleIS6_EEEPFiS0_S8_S9_iSB_Ej
libmozjs-24.so:_Z19JS_EnterCompartmentP9JSContextP8JSObject
libmozjs-24.so:_Z19JS_EvaluateUCScriptP9JSContextP8JSObjectPKtjPKcjPN2JS5ValueE
libmozjs-24.so:_Z19JS_GetCurrentThreadv
libmozjs-24.so:_Z19JS_GetDefaultFreeOpP9JSRuntime
libmozjs-24.so:_Z19JS_GetErrorReporterP9JSContext
libmozjs-24.so:_Z19JS_GetFunctionArityP10JSFunction
libmozjs-24.so:_Z19JS_GetInt8ArrayDataP8JSObject
libmozjs-24.so:_Z19JS_GetObjectRuntimeP8JSObject
libmozjs-24.so:_Z19JS_GetScriptVersionP9JSContextP8JSScript
libmozjs-24.so:_Z19JS_GetTraceEdgeNameP8JSTracerPci
libmozjs-24.so:_Z19JS_IsDataViewObjectP8JSObject
libmozjs-24.so:_Z19JS_IsExternalStringP8JSString
libmozjs-24.so:_Z19JS_IsNativeFunctionP8JSObjectPFiP9JSContextjPN2JS5ValueEE
libmozjs-24.so:_Z19JS_LeaveCompartmentP9JSContextP13JSCompartment
libmozjs-24.so:_Z19JS_LookupUCPropertyP9JSContextP8JSObjectPKtmPN2JS5ValueE
libmozjs-24.so:_Z19JS_NewUCStringCopyNP9JSContextPKtm
libmozjs-24.so:_Z19JS_NewUCStringCopyZP9JSContextPKt
libmozjs-24.so:_Z19JS_ObjectIsCallableP9JSContextP8JSObject
libmozjs-24.so:_Z19JS_ObjectIsFunctionP9JSContextP8JSObject
libmozjs-24.so:_Z19JS_PutEscapedStringP9JSContextPcmP8JSStringc
libmozjs-24.so:_Z19JS_RemoveObjectRootP9JSContextPP8JSObject
libmozjs-24.so:_Z19JS_RemoveScriptRootP9JSContextPP8JSScript
libmozjs-24.so:_Z19JS_RemoveStringRootP9JSContextPP8JSString
libmozjs-24.so:_Z19JS_SetDefaultLocaleP9JSRuntimePKc
libmozjs-24.so:_Z19JS_SetErrorReporterP9JSContextPFvS0_PKcP13JSErrorReportE
libmozjs-24.so:_Z19JS_SetRuntimeThreadP9JSRuntime
libmozjs-24.so:_Z19JS_SetSourceHandlerP9JSRuntimePFvPKcjPKtmPPvS5_ES5_
libmozjs-24.so:_Z19JS_TransplantObjectP9JSContextN2JS6HandleIP8JSObjectEES5_
libmozjs-24.so:_Z19JS_ValueToECMAInt32P9JSContextN2JS5ValueEPi
libmozjs-24.so:_Z19JS_WrapAutoIdVectorP9JSContextRN2JS12AutoIdVectorE
libmozjs-24.so:_Z19js_GetSrcNoteOffsetPhj
libmozjs-24.so:_Z19js_ReportErrorAgainP9JSContextPKcP13JSErrorReport
libmozjs-24.so:_Z20JS_AddNamedValueRootP9JSContextPN2JS5ValueEPKc
libmozjs-24.so:_Z20JS_CallFunctionValueP9JSContextP8JSObjectN2JS5ValueEjPS4_S5_
libmozjs-24.so:_Z20JS_CallGenericTracerP8JSTracerPvPKc
libmozjs-24.so:_Z20JS_CompileUCFunctionP9JSContextP8JSObjectPKcjPS4_PKtmS4_j
libmozjs-24.so:_Z20JS_DecompileFunctionP9JSContextP10JSFunctionj
libmozjs-24.so:_Z20JS_DefineOwnPropertyP9JSContextP8JSObjectlN2JS5ValueEPi
libmozjs-24.so:_Z20JS_DeleteUCProperty2P9JSContextP8JSObjectPKtmPN2JS5ValueE
libmozjs-24.so:_Z20JS_FileEscapedStringP8_IO_FILEP8JSStringc
libmozjs-24.so:_Z20JS_GetArrayPrototypeP9JSContextP8JSObject
libmozjs-24.so:_Z20JS_GetClassPrototypeP9JSContext10JSProtoKeyPP8JSObject
libmozjs-24.so:_Z20JS_GetContextPrivateP9JSContext
libmozjs-24.so:_Z20JS_GetDebugClassNameP8JSObject
libmozjs-24.so:_Z20JS_GetFunctionNativeP9JSContextP10JSFunction
libmozjs-24.so:_Z20JS_GetFunctionObjectP10JSFunction
libmozjs-24.so:_Z20JS_GetFunctionScriptP9JSContextP10JSFunction
libmozjs-24.so:_Z20JS_GetInt16ArrayDataP8JSObject
libmozjs-24.so:_Z20JS_GetInt32ArrayDataP8JSObject
libmozjs-24.so:_Z20JS_GetObjectFunctionP8JSObject
libmozjs-24.so:_Z20JS_GetRuntimePrivateP9JSRuntime
libmozjs-24.so:_Z20JS_GetScriptFilenameP9JSContextP8JSScript
libmozjs-24.so:_Z20JS_GetScriptFunctionP9JSContextP8JSScript
libmozjs-24.so:_Z20JS_GetScriptedGlobalP9JSContext
libmozjs-24.so:_Z20JS_GetTraceThingInfoPcmP8JSTracerPv13JSGCTraceKindi
libmozjs-24.so:_Z20JS_GetUint8ArrayDataP8JSObject
libmozjs-24.so:_Z20JS_IsGCMarkingTracerP8JSTracer
libmozjs-24.so:_Z20JS_NewDateObjectMsecP9JSContextd
libmozjs-24.so:_Z20JS_NewExternalStringP9JSContextPKtmPK17JSStringFinalizer
libmozjs-24.so:_Z20JS_NewGrowableStringP9JSContextPtm
libmozjs-24.so:_Z20JS_NewUCRegExpObjectP9JSContextP8JSObjectPtmj
libmozjs-24.so:_Z20JS_PreventExtensionsP9JSContextN2JS6HandleIP8JSObjectEE
libmozjs-24.so:_Z20JS_RemoveValueRootRTP9JSRuntimePN2JS5ValueE
libmozjs-24.so:_Z20JS_ReportErrorNumberP9JSContextPFPK19JSErrorFormatStringPvPKcjES4_jz
libmozjs-24.so:_Z20JS_ReportOutOfMemoryP9JSContext
libmozjs-24.so:_Z20JS_RestoreFrameChainP9JSContext
libmozjs-24.so:_Z20JS_SetContextPrivateP9JSContextPv
libmozjs-24.so:_Z20JS_SetDebugErrorHookP9JSRuntimePFiP9JSContextPKcP13JSErrorReportPvES7_
libmozjs-24.so:_Z20JS_SetRuntimePrivateP9JSRuntimePv
libmozjs-24.so:_Z20JS_SetSingleStepModeP9JSContextP8JSScripti
libmozjs-24.so:_Z20JS_StringEqualsAsciiP9JSContextP8JSStringPKcPi
libmozjs-24.so:_Z20JS_ValueToECMAUint32P9JSContextN2JS5ValueEPj
libmozjs-24.so:_Z20js_DefineOwnPropertyP9JSContextP8JSObjectlRK20JSPropertyDescriptorPi
libmozjs-24.so:_Z20js_NewDateObjectMsecP9JSContextd
libmozjs-24.so:_Z21JS_AbortIfWrongThreadP9JSRuntime
libmozjs-24.so:_Z21JS_AddNamedObjectRootP9JSContextPP8JSObjectPKc
libmozjs-24.so:_Z21JS_AddNamedScriptRootP9JSContextPP8JSScriptPKc
libmozjs-24.so:_Z21JS_AddNamedStringRootP9JSContextPP8JSStringPKc
libmozjs-24.so:_Z21JS_ClearRegExpStaticsP9JSContextP8JSObject
libmozjs-24.so:_Z21JS_ClearRuntimeThreadP9JSRuntime
libmozjs-24.so:_Z21JS_ConvertArgumentsVAP9JSContextjPN2JS5ValueEPKcP13__va_list_tag
libmozjs-24.so:_Z21JS_CopyPropertiesFromP9JSContextP8JSObjectS2_
libmozjs-24.so:_Z21JS_DefineConstDoublesP9JSContextP8JSObjectPK17JSConstDoubleSpec
libmozjs-24.so:_Z21JS_DefineFunctionByIdP9JSContextP8JSObjectlPFiS0_jPN2JS5ValueEEjj
libmozjs-24.so:_Z21JS_DefinePropertyByIdP9JSContextP8JSObjectlN2JS5ValueEPFiS0_NS3_6HandleIS2_EENS5_IlEENS3_13MutableHandleIS4_EEEPFiS0_S6_S7_iS9_Ej
libmozjs-24.so:_Z21JS_DeletePropertyByIdP9JSContextP8JSObjectl
libmozjs-24.so:_Z21JS_DeletePropertyStubP9JSContextN2JS6HandleIP8JSObjectEENS2_IlEEPi
libmozjs-24.so:_Z21JS_DestroyContextNoGCP9JSContext
libmozjs-24.so:_Z21JS_DropExceptionStateP9JSContextP16JSExceptionState
libmozjs-24.so:_Z21JS_EncodeStringToUTF8P9JSContextP8JSString
libmozjs-24.so:_Z21JS_ErrorFromExceptionP9JSContextN2JS5ValueE
libmozjs-24.so:_Z21JS_GetAnonymousStringP9JSRuntime
libmozjs-24.so:_Z21JS_GetArrayBufferDataP8JSObject
libmozjs-24.so:_Z21JS_GetFlatStringCharsP12JSFlatString
libmozjs-24.so:_Z21JS_GetGlobalForObjectP9JSContextP8JSObject
libmozjs-24.so:_Z21JS_GetInstancePrivateP9JSContextP8JSObjectP7JSClassPN2JS5ValueE
libmozjs-24.so:_Z21JS_GetLocaleCallbacksP9JSRuntime
libmozjs-24.so:_Z21JS_GetObjectPrototypeP9JSContextP8JSObject
libmozjs-24.so:_Z21JS_GetPropertyDefaultP9JSContextP8JSObjectPKcN2JS5ValueEPS6_
libmozjs-24.so:_Z21JS_GetScriptSourceMapP9JSContextP8JSScript
libmozjs-24.so:_Z21JS_GetUint16ArrayDataP8JSObject
libmozjs-24.so:_Z21JS_GetUint32ArrayDataP8JSObject
libmozjs-24.so:_Z21JS_IsExceptionPendingP9JSContext
libmozjs-24.so:_Z21JS_IsTypedArrayObjectP8JSObject
libmozjs-24.so:_Z21JS_LookupPropertyByIdP9JSContextP8JSObjectlPN2JS5ValueE
libmozjs-24.so:_Z21JS_NewDependentStringP9JSContextP8JSStringmm
libmozjs-24.so:_Z21JS_RemoveObjectRootRTP9JSRuntimePP8JSObject
libmozjs-24.so:_Z21JS_RemoveScriptRootRTP9JSRuntimePP8JSScript
libmozjs-24.so:_Z21JS_RemoveStringRootRTP9JSRuntimePP8JSString
libmozjs-24.so:_Z21JS_ResetDefaultLocaleP9JSRuntime
libmozjs-24.so:_Z21JS_SaveExceptionStateP9JSContext
libmozjs-24.so:_Z21JS_SetContextCallbackP9JSRuntimePFiP9JSContextjE
libmozjs-24.so:_Z21JS_SetDebuggerHandlerP9JSRuntimePF12JSTrapStatusP9JSContextP8JSScriptPhPN2JS5ValueEPvESA_
libmozjs-24.so:_Z21JS_SetLocaleCallbacksP9JSRuntimeP17JSLocaleCallbacks
libmozjs-24.so:_Z21JS_StrictPropertyStubP9JSContextN2JS6HandleIP8JSObjectEENS2_IlEEiNS1_13MutableHandleINS1_5ValueEEE
libmozjs-24.so:_Z21JS_ThrowReportedErrorP9JSContextPKcP13JSErrorReport
libmozjs-24.so:_Z21JS_ThrowStopIterationP9JSContext
libmozjs-24.so:_Z21JS_ValueToConstructorP9JSContextN2JS5ValueE
libmozjs-24.so:_Z21js_ReportOverRecursedP9JSContext
libmozjs-24.so:_Z22JS_AddNamedValueRootRTP9JSRuntimePN2JS5ValueEPKc
libmozjs-24.so:_Z22JS_BasicObjectToStringP9JSContextN2JS6HandleIP8JSObjectEE
libmozjs-24.so:_Z22JS_CallHeapValueTracerP8JSTracerPN2JS4HeapINS1_5ValueEEEPKc
libmozjs-24.so:_Z22JS_ClearAllWatchPointsP9JSContext
libmozjs-24.so:_Z22JS_CloneFunctionObjectP9JSContextP8JSObjectS2_
libmozjs-24.so:_Z22JS_DeletePropertyById2P9JSContextP8JSObjectlPN2JS5ValueE
libmozjs-24.so:_Z22JS_ForwardGetElementToP9JSContextP8JSObjectjS2_PN2JS5ValueE
libmozjs-24.so:_Z22JS_GetElementIfPresentP9JSContextP8JSObjectjS2_PN2JS5ValueEPi
libmozjs-24.so:_Z22JS_GetEmptyStringValueP9JSContext
libmozjs-24.so:_Z22JS_GetFloat32ArrayDataP8JSObject
libmozjs-24.so:_Z22JS_GetFloat64ArrayDataP8JSObject
libmozjs-24.so:_Z22JS_GetGlobalDebugHooksP9JSRuntime
libmozjs-24.so:_Z22JS_GetGlobalFromScriptP8JSScript
libmozjs-24.so:_Z22JS_GetPendingExceptionP9JSContextPN2JS5ValueE
libmozjs-24.so:_Z22JS_GetScriptLineExtentP9JSContextP8JSScript
libmozjs-24.so:_Z22JS_GetScriptPrincipalsP8JSScript
libmozjs-24.so:_Z22JS_GetTypedArrayLengthP8JSObject
libmozjs-24.so:_Z22JS_InitStandardClassesP9JSContextP8JSObject
libmozjs-24.so:_Z22JS_IsArrayBufferObjectP8JSObject
libmozjs-24.so:_Z22JS_IsUint8ClampedArrayP8JSObject
libmozjs-24.so:_Z22JS_IterateCompartmentsP9JSRuntimePvPFvS0_S1_P13JSCompartmentE
libmozjs-24.so:_Z22JS_NewPropertyIteratorP9JSContextP8JSObject
libmozjs-24.so:_Z22JS_ObjectToInnerObjectP9JSContextP8JSObject
libmozjs-24.so:_Z22JS_ObjectToOuterObjectP9JSContextP8JSObject
libmozjs-24.so:_Z22JS_ReadStructuredCloneP9JSContextPmmjPN2JS5ValueEPK26JSStructuredCloneCallbacksPv
libmozjs-24.so:_Z22JS_ReportErrorNumberUCP9JSContextPFPK19JSErrorFormatStringPvPKcjES4_jz
libmozjs-24.so:_Z22JS_ReportErrorNumberVAP9JSContextPFPK19JSErrorFormatStringPvPKcjES4_jP13__va_list_tag
libmozjs-24.so:_Z22JS_SetFinalizeCallbackP9JSRuntimePFvP8JSFreeOp16JSFinalizeStatusiE
libmozjs-24.so:_Z22JS_SetNativeStackQuotaP9JSRuntimem
libmozjs-24.so:_Z22JS_SetPendingExceptionP9JSContextN2JS5ValueE
libmozjs-24.so:_Z22JS_SetRuntimeDebugModeP9JSRuntimei
libmozjs-24.so:_Z22JS_updateMallocCounterP9JSContextm
libmozjs-24.so:_Z22js_GetScriptLineExtentP8JSScript
libmozjs-24.so:_Z22js_ReportIsNotFunctionP9JSContextRKN2JS5ValueE
libmozjs-24.so:_Z23INTERNED_STRING_TO_JSIDP9JSContextP8JSString
libmozjs-24.so:_Z23JS_AlreadyHasOwnElementP9JSContextP8JSObjectjPi
libmozjs-24.so:_Z23JS_CallHeapObjectTracerP8JSTracerPN2JS4HeapIP8JSObjectEEPKc
libmozjs-24.so:_Z23JS_CallHeapScriptTracerP8JSTracerPN2JS4HeapIP8JSScriptEEPKc
libmozjs-24.so:_Z23JS_CallHeapStringTracerP8JSTracerPN2JS4HeapIP8JSStringEEPKc
libmozjs-24.so:_Z23JS_ClearNonGlobalObjectP9JSContextP8JSObject
libmozjs-24.so:_Z23JS_ClearStructuredClonePKmm
libmozjs-24.so:_Z23JS_DefineDebuggerObjectP9JSContextP8JSObject
libmozjs-24.so:_Z23JS_EncodeStringToBufferP9JSContextP8JSStringPcm
libmozjs-24.so:_Z23JS_ExecuteScriptVersionP9JSContextP8JSObjectP8JSScriptPN2JS5ValueE9JSVersion
libmozjs-24.so:_Z23JS_FindCompilationScopeP9JSContextP8JSObject
libmozjs-24.so:_Z23JS_ForwardGetPropertyToP9JSContextP8JSObjectlS2_PN2JS5ValueE
libmozjs-24.so:_Z23JS_GetFunctionDisplayIdP10JSFunction
libmozjs-24.so:_Z23JS_GetFunctionPrototypeP9JSContextP8JSObject
libmozjs-24.so:_Z23JS_GetObjectAsInt8ArrayP8JSObjectPjPPa
libmozjs-24.so:_Z23JS_GetOperationCallbackP9JSContext
libmozjs-24.so:_Z23JS_GetPropertyDescArrayP9JSContextP8JSObjectP19JSPropertyDescArray
libmozjs-24.so:_Z23JS_GetSecurityCallbacksP9JSRuntime
libmozjs-24.so:_Z23JS_IsAboutToBeFinalizedPP8JSObject
libmozjs-24.so:_Z23JS_NewUint8ClampedArrayP9JSContextj
libmozjs-24.so:_Z23JS_ParseJSONWithReviverP9JSContextPKtjN2JS5ValueEPS4_
libmozjs-24.so:_Z23JS_PutEscapedFlatStringPcmP12JSFlatStringc
libmozjs-24.so:_Z23JS_PutPropertyDescArrayP9JSContextP19JSPropertyDescArray
libmozjs-24.so:_Z23JS_ResolveStandardClassP9JSContextN2JS6HandleIP8JSObjectEENS2_IlEEPi
libmozjs-24.so:_Z23JS_SetGrayGCRootsTracerP9JSRuntimePFvP8JSTracerPvES3_
libmozjs-24.so:_Z23JS_SetNewScriptHookProcP9JSRuntimePFvP9JSContextPKcjP8JSScriptP10JSFunctionPvES9_
libmozjs-24.so:_Z23JS_SetOperationCallbackP9JSContextPFiS0_E
libmozjs-24.so:_Z23JS_SetSecurityCallbacksP9JSRuntimePK19JSSecurityCallbacks
libmozjs-24.so:_Z23JS_SetSweepZoneCallbackP9JSRuntimePFvPN2JS4ZoneEE
libmozjs-24.so:_Z23JS_SetTrustedPrincipalsP9JSRuntimeP12JSPrincipals
libmozjs-24.so:_Z23JS_WriteStructuredCloneP9JSContextN2JS5ValueEPPmS3_PK26JSStructuredCloneCallbacksPvS2_
libmozjs-24.so:_Z24JS_AddExtraGCRootsTracerP9JSRuntimePFvP8JSTracerPvES3_
libmozjs-24.so:_Z24JS_AlreadyHasOwnPropertyP9JSContextP8JSObjectPKcPi
libmozjs-24.so:_Z24JS_ClearPendingExceptionP9JSContext
libmozjs-24.so:_Z24JS_DecompileFunctionBodyP9JSContextP10JSFunctionj
libmozjs-24.so:_Z24JS_FlatStringEqualsAsciiP12JSFlatStringPKc
libmozjs-24.so:_Z24JS_FunctionHasLocalNamesP9JSContextP10JSFunction
libmozjs-24.so:_Z24JS_GetCompartmentPrivateP13JSCompartment
libmozjs-24.so:_Z24JS_GetDataViewByteLengthP8JSObject
libmozjs-24.so:_Z24JS_GetDataViewByteOffsetP8JSObject
libmozjs-24.so:_Z24JS_GetObjectAsInt16ArrayP8JSObjectPjPPs
libmozjs-24.so:_Z24JS_GetObjectAsInt32ArrayP8JSObjectPjPPi
libmozjs-24.so:_Z24JS_GetObjectAsUint8ArrayP8JSObjectPjPPh
libmozjs-24.so:_Z24JS_GetParentOrScopeChainP9JSContextP8JSObject
libmozjs-24.so:_Z24JS_GetPropertyAttributesP9JSContextP8JSObjectPKcPjPi
libmozjs-24.so:_Z24JS_GetScriptIsSelfHostedP8JSScript
libmozjs-24.so:_Z24JS_IsBuiltinEvalFunctionP10JSFunction
libmozjs-24.so:_Z24JS_NewInt8ArrayFromArrayP9JSContextP8JSObject
libmozjs-24.so:_Z24JS_RestoreExceptionStateP9JSContextP16JSExceptionState
libmozjs-24.so:_Z24JS_SetCompartmentPrivateP13JSCompartmentPv
libmozjs-24.so:_Z24JS_SetPropertyAttributesP9JSContextP8JSObjectPKcjPi
libmozjs-24.so:_Z24JS_StringHasBeenInternedP9JSContextP8JSString
libmozjs-24.so:_Z24js_DateGetMsecSinceEpochP8JSObject
libmozjs-24.so:_Z25JS_BufferIsCompilableUnitP9JSContextP8JSObjectPKcm
libmozjs-24.so:_Z25JS_CallMaskedObjectTracerP8JSTracerPmmPKc
libmozjs-24.so:_Z25JS_DescribeScriptedCallerP9JSContextPP8JSScriptPj
libmozjs-24.so:_Z25JS_ExecuteRegExpNoStaticsP9JSContextP8JSObjectPtmPmiPN2JS5ValueE
libmozjs-24.so:_Z25JS_GetArrayBufferViewDataP8JSObject
libmozjs-24.so:_Z25JS_GetArrayBufferViewTypeP8JSObject
libmozjs-24.so:_Z25JS_GetCustomIteratorCountP9JSContext
libmozjs-24.so:_Z25JS_GetGlobalForScopeChainP9JSContext
libmozjs-24.so:_Z25JS_GetInternedStringCharsP8JSString
libmozjs-24.so:_Z25JS_GetObjectAsArrayBufferP8JSObjectPjPPh
libmozjs-24.so:_Z25JS_GetObjectAsUint16ArrayP8JSObjectPjPPt
libmozjs-24.so:_Z25JS_GetObjectAsUint32ArrayP8JSObjectPjPS1_
libmozjs-24.so:_Z25JS_GetPropertyByIdDefaultP9JSContextP8JSObjectlN2JS5ValueEPS4_
libmozjs-24.so:_Z25JS_IdentifyClassPrototypeP9JSContextP8JSObject
libmozjs-24.so:_Z25JS_NewInt16ArrayFromArrayP9JSContextP8JSObject
libmozjs-24.so:_Z25JS_NewInt32ArrayFromArrayP9JSContextP8JSObject
libmozjs-24.so:_Z25JS_NewInt8ArrayWithBufferP9JSContextP8JSObjectji
libmozjs-24.so:_Z25JS_NewUint8ArrayFromArrayP9JSContextP8JSObject
libmozjs-24.so:_Z25JS_ReportPendingExceptionP9JSContext
libmozjs-24.so:_Z25JS_SetDestroyZoneCallbackP9JSRuntimePFvPN2JS4ZoneEE
libmozjs-24.so:_Z25JS_SetWrapObjectCallbacksP9JSRuntimePFP8JSObjectP9JSContextN2JS6HandleIS2_EES7_S7_S7_jEPFS2_S4_S7_EPFS2_S4_S7_S7_jE
libmozjs-24.so:_Z25JS_WrapPropertyDescriptorP9JSContextP20JSPropertyDescriptor
libmozjs-24.so:_Z25js_GetterOnlyPropertyStubP9JSContextN2JS6HandleIP8JSObjectEENS2_IlEEiNS1_13MutableHandleINS1_5ValueEEE
libmozjs-24.so:_Z26JS_AlreadyHasOwnUCPropertyP9JSContextP8JSObjectPKtmPi
libmozjs-24.so:_Z26JS_DefineFunctionsWithHelpP9JSContextP8JSObjectPK22JSFunctionSpecWithHelp
libmozjs-24.so:_Z26JS_DumpCompartmentBytecodeP9JSContext
libmozjs-24.so:_Z26JS_DumpCompartmentPCCountsP9JSContext
libmozjs-24.so:_Z26JS_GetGCParameterForThreadP9JSContext12JSGCParamKey
libmozjs-24.so:_Z26JS_GetObjectAsFloat32ArrayP8JSObjectPjPPf
libmozjs-24.so:_Z26JS_GetObjectAsFloat64ArrayP8JSObjectPjPPd
libmozjs-24.so:_Z26JS_GetScriptBaseLineNumberP9JSContextP8JSScript
libmozjs-24.so:_Z26JS_GetSecondContextPrivateP9JSContext
libmozjs-24.so:_Z26JS_GetStringCharsAndLengthP9JSContextP8JSStringPm
libmozjs-24.so:_Z26JS_GetStringEncodingLengthP9JSContextP8JSString
libmozjs-24.so:_Z26JS_GetTypedArrayByteLengthP8JSObject
libmozjs-24.so:_Z26JS_GetTypedArrayByteOffsetP8JSObject
libmozjs-24.so:_Z26JS_GetUCPropertyAttributesP9JSContextP8JSObjectPKtmPjPi
libmozjs-24.so:_Z26JS_IsArrayBufferViewObjectP8JSObject
libmozjs-24.so:_Z26JS_LookupPropertyWithFlagsP9JSContextP8JSObjectPKcjPN2JS5ValueE
libmozjs-24.so:_Z26JS_NewInt16ArrayWithBufferP9JSContextP8JSObjectji
libmozjs-24.so:_Z26JS_NewInt32ArrayWithBufferP9JSContextP8JSObjectji
libmozjs-24.so:_Z26JS_NewObjectForConstructorP9JSContextP7JSClassPKN2JS5ValueE
libmozjs-24.so:_Z26JS_NewObjectWithGivenProtoP9JSContextP7JSClassP8JSObjectS4_
libmozjs-24.so:_Z26JS_NewObjectWithUniqueTypeP9JSContextP7JSClassP8JSObjectS4_
libmozjs-24.so:_Z26JS_NewUint16ArrayFromArrayP9JSContextP8JSObject
libmozjs-24.so:_Z26JS_NewUint32ArrayFromArrayP9JSContextP8JSObject
libmozjs-24.so:_Z26JS_NewUint8ArrayWithBufferP9JSContextP8JSObjectji
libmozjs-24.so:_Z26JS_SetGCParameterForThreadP9JSContext12JSGCParamKeyj
libmozjs-24.so:_Z26JS_SetGlobalCompilerOptionP9JSContext16JSCompilerOptionj
libmozjs-24.so:_Z26JS_SetSecondContextPrivateP9JSContextPv
libmozjs-24.so:_Z26JS_SetUCPropertyAttributesP9JSContextP8JSObjectPKtmjPi
libmozjs-24.so:_Z26js_CallContextDebugHandlerP9JSContext
libmozjs-24.so:_Z27JS_DefineProfilingFunctionsP9JSContextP8JSObject
libmozjs-24.so:_Z27JS_DefinePropertyWithTinyIdP9JSContextP8JSObjectPKcaN2JS5ValueEPFiS0_NS5_6HandleIS2_EENS7_IlEENS5_13MutableHandleIS6_EEEPFiS0_S8_S9_iSB_Ej
libmozjs-24.so:_Z27JS_EnterCompartmentOfScriptP9JSContextP8JSScript
libmozjs-24.so:_Z27JS_EnumerateStandardClassesP9JSContextN2JS6HandleIP8JSObjectEE
libmozjs-24.so:_Z27JS_GetArrayBufferByteLengthP8JSObject
libmozjs-24.so:_Z27JS_GetArrayBufferViewBufferP8JSObject
libmozjs-24.so:_Z27JS_GetCompartmentPrincipalsP13JSCompartment
libmozjs-24.so:_Z27JS_GetFunctionArgumentCountP9JSContextP10JSFunction
libmozjs-24.so:_Z27JS_GetImplementationVersionv
libmozjs-24.so:_Z27JS_GetNegativeInfinityValueP9JSContext
libmozjs-24.so:_Z27JS_GetOwnPropertyDescriptorP9JSContextP8JSObjectlPN2JS5ValueE
libmozjs-24.so:_Z27JS_GetPositiveInfinityValueP9JSContext
libmozjs-24.so:_Z27JS_GetStringCharsZAndLengthP9JSContextP8JSStringPm
libmozjs-24.so:_Z27JS_GetUint8ClampedArrayDataP8JSObject
libmozjs-24.so:_Z27JS_NewFloat32ArrayFromArrayP9JSContextP8JSObject
libmozjs-24.so:_Z27JS_NewFloat64ArrayFromArrayP9JSContextP8JSObject
libmozjs-24.so:_Z27JS_NewRegExpObjectNoStaticsP9JSContextPcmj
libmozjs-24.so:_Z27JS_NewUint16ArrayWithBufferP9JSContextP8JSObjectji
libmozjs-24.so:_Z27JS_NewUint32ArrayWithBufferP9JSContextP8JSObjectji
libmozjs-24.so:_Z27JS_RemoveExtraGCRootsTracerP9JSRuntimePFvP8JSTracerPvES3_
libmozjs-24.so:_Z27JS_ReportAllocationOverflowP9JSContext
libmozjs-24.so:_Z27JS_ReportErrorNumberUCArrayP9JSContextPFPK19JSErrorFormatStringPvPKcjES4_jPPKt
libmozjs-24.so:_Z27JS_SetCompartmentPrincipalsP13JSCompartmentP12JSPrincipals
libmozjs-24.so:_Z27JS_SetDestroyScriptHookProcP9JSRuntimePFvP8JSFreeOpP8JSScriptPvES5_
libmozjs-24.so:_Z27JS_SetVersionForCompartmentP13JSCompartment9JSVersion
libmozjs-24.so:_Z27JS_StealArrayBufferContentsP9JSContextP8JSObjectPPvPPh
libmozjs-24.so:_Z27JS_TriggerOperationCallbackP9JSRuntime
libmozjs-24.so:_Z28JS_AlreadyHasOwnPropertyByIdP9JSContextP8JSObjectlPi
libmozjs-24.so:_Z28JS_ClearWatchPointsForObjectP9JSContextP8JSObject
libmozjs-24.so:_Z28JS_DecodeInterpretedFunctionP9JSContextPKvjP12JSPrincipalsS4_
libmozjs-24.so:_Z28JS_EncodeInterpretedFunctionP9JSContextP8JSObjectPj
libmozjs-24.so:_Z28JS_GetFunctionLocalNameArrayP9JSContextP10JSFunctionPPv
libmozjs-24.so:_Z28JS_GetPropertyDescriptorByIdP9JSContextP8JSObjectljP20JSPropertyDescriptor
libmozjs-24.so:_Z28JS_GetScriptOriginPrincipalsP8JSScript
libmozjs-24.so:_Z28JS_NewFloat32ArrayWithBufferP9JSContextP8JSObjectji
libmozjs-24.so:_Z28JS_NewFloat64ArrayWithBufferP9JSContextP8JSObjectji
libmozjs-24.so:_Z28JS_ReportErrorFlagsAndNumberP9JSContextjPFPK19JSErrorFormatStringPvPKcjES4_jz
libmozjs-24.so:_Z29JS_CompileScriptForPrincipalsP9JSContextP8JSObjectP12JSPrincipalsPKcmS6_j
libmozjs-24.so:_Z29JS_DefineUCPropertyWithTinyIdP9JSContextP8JSObjectPKtmaN2JS5ValueEPFiS0_NS5_6HandleIS2_EENS7_IlEENS5_13MutableHandleIS6_EEEPFiS0_S8_S9_iSB_Ej
libmozjs-24.so:_Z29JS_GetExternalStringFinalizerP8JSString
libmozjs-24.so:_Z29JS_GetObjectAsArrayBufferViewP8JSObjectPjPPh
libmozjs-24.so:_Z29JS_NewArrayBufferWithContentsP9JSContextPv
libmozjs-24.so:_Z29JS_NewUCRegExpObjectNoStaticsP9JSContextPtmj
libmozjs-24.so:_Z29JS_SetCompartmentNameCallbackP9JSRuntimePFvS0_P13JSCompartmentPcmE
libmozjs-24.so:_Z29JS_SetDebugModeForCompartmentP9JSContextP13JSCompartmenti
libmozjs-24.so:_Z30JS_AllocateArrayBufferContentsP9JSContextjPPvPPh
libmozjs-24.so:_Z30JS_ClearAllTrapsForCompartmentP9JSContext
libmozjs-24.so:_Z30JS_EvaluateScriptForPrincipalsP9JSContextP8JSObjectP12JSPrincipalsPKcjS6_jPN2JS5ValueE
libmozjs-24.so:_Z30JS_LinkConstructorAndPrototypeP9JSContextP8JSObjectS2_
libmozjs-24.so:_Z30JS_LookupPropertyWithFlagsByIdP9JSContextP8JSObjectljPS2_PN2JS5ValueE
libmozjs-24.so:_Z30JS_ReportErrorFlagsAndNumberUCP9JSContextjPFPK19JSErrorFormatStringPvPKcjES4_jz
libmozjs-24.so:_Z30JS_SetStructuredCloneCallbacksP9JSRuntimePK26JSStructuredCloneCallbacks
libmozjs-24.so:_Z30JS_UnsafeGetLastProfilingErrorv
libmozjs-24.so:_Z31JS_CompileFunctionForPrincipalsP9JSContextP8JSObjectP12JSPrincipalsPKcjPS6_S6_mS6_j
libmozjs-24.so:_Z31JS_CompileUCScriptForPrincipalsP9JSContextP8JSObjectP12JSPrincipalsPKtmPKcj
libmozjs-24.so:_Z31JS_GetArrayBufferViewByteLengthP8JSObject
libmozjs-24.so:_Z31JS_GetObjectAsUint8ClampedArrayP8JSObjectPjPPh
libmozjs-24.so:_Z31JS_IsBuiltinFunctionConstructorP10JSFunction
libmozjs-24.so:_Z32JS_EvaluateUCScriptForPrincipalsP9JSContextP8JSObjectP12JSPrincipalsPKtjPKcjPN2JS5ValueE
libmozjs-24.so:_Z32JS_GetGlobalForCompartmentOrNullP9JSContextP13JSCompartment
libmozjs-24.so:_Z32JS_InitDestroyPrincipalsCallbackP9JSRuntimePFvP12JSPrincipalsE
libmozjs-24.so:_Z32JS_NewUint8ClampedArrayFromArrayP9JSContextP8JSObject
libmozjs-24.so:_Z32JS_ReallocateArrayBufferContentsP9JSContextjPPvPPh
libmozjs-24.so:_Z32JS_ReleaseFunctionLocalNameArrayP9JSContextPv
libmozjs-24.so:_Z32JS_SetDestroyCompartmentCallbackP9JSRuntimePFvP8JSFreeOpP13JSCompartmentE
libmozjs-24.so:_Z32JS_SetParallelCompilationEnabledP9JSContextb
libmozjs-24.so:_Z33JS_NewUint8ClampedArrayWithBufferP9JSContextP8JSObjectji
libmozjs-24.so:_Z33JS_NondeterministicGetWeakMapKeysP9JSContextP8JSObjectPS2_
libmozjs-24.so:_Z33JS_SetAccumulateTelemetryCallbackP9JSRuntimePFvijE
libmozjs-24.so:_Z33JS_SetDebugModeForAllCompartmentsP9JSContexti
libmozjs-24.so:_Z34JS_GetInternedStringCharsAndLengthP8JSStringPm
libmozjs-24.so:_Z34JS_GetPropertyAttrsGetterAndSetterP9JSContextP8JSObjectPKcPjPiPPFiS0_N2JS6HandleIS2_EENS8_IlEENS7_13MutableHandleINS7_5ValueEEEEPPFiS0_S9_SA_iSD_E
libmozjs-24.so:_Z34JS_RefreshCrossCompartmentWrappersP9JSContextP8JSObject
libmozjs-24.so:_Z34JS_StructuredCloneHasTransferablesPKmmPi
libmozjs-24.so:_Z35JS_EnumerateDiagnosticMemoryRegionsPFiPvmE
libmozjs-24.so:_Z35JS_TraceShapeCycleCollectorChildrenP8JSTracerPv
libmozjs-24.so:_Z36JS_GetUCPropertyAttrsGetterAndSetterP9JSContextP8JSObjectPKtmPjPiPPFiS0_N2JS6HandleIS2_EENS8_IlEENS7_13MutableHandleINS7_5ValueEEEEPPFiS0_S9_SA_iSD_E
libmozjs-24.so:_Z36JS_SetAllNonReservedSlotsToUndefinedP9JSContextP8JSObject
libmozjs-24.so:_Z37JS_EvaluateScriptForPrincipalsVersionP9JSContextP8JSObjectP12JSPrincipalsPKcjS6_jPN2JS5ValueE9JSVersion
libmozjs-24.so:_Z38JS_GetPropertyAttrsGetterAndSetterByIdP9JSContextP8JSObjectlPjPiPPFiS0_N2JS6HandleIS2_EENS6_IlEENS5_13MutableHandleINS5_5ValueEEEEPPFiS0_S7_S8_iSB_E
libmozjs-24.so:_Z39JS_EvaluateUCScriptForPrincipalsVersionP9JSContextP8JSObjectP12JSPrincipalsPKtjPKcjPN2JS5ValueE9JSVersion
libmozjs-24.so:_Z45JS_EvaluateUCScriptForPrincipalsVersionOriginP9JSContextP8JSObjectP12JSPrincipalsS4_PKtjPKcjPN2JS5ValueE9JSVersion
libmozjs-24.so:_Z5JS_GCP9JSRuntime
libmozjs-24.so:_Z6JS_NewP9JSContextP8JSObjectjPN2JS5ValueE
libmozjs-24.so:_Z6JS_Nowv
libmozjs-24.so:_Z7JS_freeP9JSContextPv
libmozjs-24.so:_Z8JS_EndPCP9JSContextP8JSScript
libmozjs-24.so:_Z8js_fgetsPciP8_IO_FILE
libmozjs-24.so:_Z9JS_AssertPKcS0_i
libmozjs-24.so:_Z9JS_WrapIdP9JSContextPl
libmozjs-24.so:_Z9JS_freeopP8JSFreeOpPv
libmozjs-24.so:_Z9JS_mallocP9JSContextm
libmozjs-24.so:_Z9JS_strdupP9JSContextPKc
libmozjs-24.so:_Z9JS_strdupP9JSRuntimePKc
libmozjs-24.so:_ZN17JSAutoCompartmentC1EP9JSContextP8JSObject
libmozjs-24.so:_ZN17JSAutoCompartmentC1EP9JSContextP8JSScript
libmozjs-24.so:_ZN17JSAutoCompartmentC2EP9JSContextP8JSObject
libmozjs-24.so:_ZN17JSAutoCompartmentC2EP9JSContextP8JSScript
libmozjs-24.so:_ZN17JSAutoCompartmentD1Ev
libmozjs-24.so:_ZN17JSAutoCompartmentD2Ev
libmozjs-24.so:_ZN17double_conversion23DoubleToStringConverter13DoubleToAsciiEdNS0_8DtoaModeEiPciPbPiS4_
libmozjs-24.so:_ZN17double_conversion23DoubleToStringConverter19EcmaScriptConverterEv
libmozjs-24.so:_ZN18JSAbstractFramePtr10callObjectEP9JSContext
libmozjs-24.so:_ZN18JSAbstractFramePtr10scopeChainEP9JSContext
libmozjs-24.so:_ZN18JSAbstractFramePtr12getThisValueEP9JSContextN2JS13MutableHandleINS2_5ValueEEE
libmozjs-24.so:_ZN18JSAbstractFramePtr15isDebuggerFrameEv
libmozjs-24.so:_ZN18JSAbstractFramePtr20evaluateInStackFrameEP9JSContextPKcjS3_jN2JS13MutableHandleINS4_5ValueEEE
libmozjs-24.so:_ZN18JSAbstractFramePtr22evaluateUCInStackFrameEP9JSContextPKtjPKcjN2JS13MutableHandleINS6_5ValueEEE
libmozjs-24.so:_ZN18JSAbstractFramePtr6scriptEv
libmozjs-24.so:_ZN18JSAbstractFramePtr8maybeFunEv
libmozjs-24.so:_ZN18JSAbstractFramePtrC1EPv
libmozjs-24.so:_ZN18JSAbstractFramePtrC2EPv
libmozjs-24.so:_ZN21JSBrokenFrameIteratorC1EP9JSContext
libmozjs-24.so:_ZN21JSBrokenFrameIteratorC2EP9JSContext
libmozjs-24.so:_ZN21JSBrokenFrameIteratorD1Ev
libmozjs-24.so:_ZN21JSBrokenFrameIteratorD2Ev
libmozjs-24.so:_ZN21JSBrokenFrameIteratorppEv
libmozjs-24.so:_ZN27JSAutoStructuredCloneBuffer4copyEPKmmj
libmozjs-24.so:_ZN27JSAutoStructuredCloneBuffer4readEP9JSContextPN2JS5ValueEPK26JSStructuredCloneCallbacksPv
libmozjs-24.so:_ZN27JSAutoStructuredCloneBuffer4swapERS_
libmozjs-24.so:_ZN27JSAutoStructuredCloneBuffer5adoptEPmmj
libmozjs-24.so:_ZN27JSAutoStructuredCloneBuffer5clearEv
libmozjs-24.so:_ZN27JSAutoStructuredCloneBuffer5stealEPPmS0_Pj
libmozjs-24.so:_ZN27JSAutoStructuredCloneBuffer5writeEP9JSContextN2JS5ValueEPK26JSStructuredCloneCallbacksPv
libmozjs-24.so:_ZN27JSAutoStructuredCloneBuffer5writeEP9JSContextN2JS5ValueES3_PK26JSStructuredCloneCallbacksPv
libmozjs-24.so:_ZN2JS11DayFromTimeEd
libmozjs-24.so:_ZN2JS11GCForReasonEP9JSRuntimeNS_8gcreason6ReasonE
libmozjs-24.so:_ZN2JS11ShrinkingGCEP9JSRuntimeNS_8gcreason6ReasonE
libmozjs-24.so:_ZN2JS11isGCEnabledEv
libmozjs-24.so:_ZN2JS12AutoGCRooter16traceAllWrappersEP8JSTracer
libmozjs-24.so:_ZN2JS12AutoGCRooter8traceAllEP8JSTracer
libmozjs-24.so:_ZN2JS12AutoGCRooterC1EP9JSContextl
libmozjs-24.so:_ZN2JS12AutoGCRooterC2EP9JSContextl
libmozjs-24.so:_ZN2JS12YearFromTimeEd
libmozjs-24.so:_ZN2JS13DescribeStackEP9JSContextj
libmozjs-24.so:_ZN2JS13IncrementalGCEP9JSRuntimeNS_8gcreason6ReasonEl
libmozjs-24.so:_ZN2JS13IsGCScheduledEP9JSRuntime
libmozjs-24.so:_ZN2JS13MonthFromTimeEd
libmozjs-24.so:_ZN2JS13SkipZoneForGCEPNS_4ZoneE
libmozjs-24.so:_ZN2JS14CompileOptionsC1EP9JSContext9JSVersion
libmozjs-24.so:_ZN2JS14CompileOptionsC2EP9JSContext9JSVersion
libmozjs-24.so:_ZN2JS14NotifyDidPaintEP9JSRuntime
libmozjs-24.so:_ZN2JS15CompileFunctionEP9JSContextNS_6HandleIP8JSObjectEENS_14CompileOptionsEPKcjPS8_PKtm
libmozjs-24.so:_ZN2JS15CompileFunctionEP9JSContextNS_6HandleIP8JSObjectEENS_14CompileOptionsEPKcjPS8_S8_m
libmozjs-24.so:_ZN2JS15FormatStackDumpEP9JSContextPciii
libmozjs-24.so:_ZN2JS15PerfMeasurement19canMeasureSomethingEv
libmozjs-24.so:_ZN2JS15PerfMeasurement4stopEv
libmozjs-24.so:_ZN2JS15PerfMeasurement5resetEv
libmozjs-24.so:_ZN2JS15PerfMeasurement5startEv
libmozjs-24.so:_ZN2JS15PerfMeasurementC1ENS0_9EventMaskE
libmozjs-24.so:_ZN2JS15PerfMeasurementC2ENS0_9EventMaskE
libmozjs-24.so:_ZN2JS15PerfMeasurementD1Ev
libmozjs-24.so:_ZN2JS15PerfMeasurementD2Ev
libmozjs-24.so:_ZN2JS15ShrinkGCBuffersEP9JSRuntime
libmozjs-24.so:_ZN2JS16PrepareForFullGCEP9JSRuntime
libmozjs-24.so:_ZN2JS16PrepareZoneForGCEPNS_4ZoneE
libmozjs-24.so:_ZN2JS16WasIncrementalGCEP9JSRuntime
libmozjs-24.so:_ZN2JS18SetGCSliceCallbackEP9JSRuntimePFvS1_NS_10GCProgressERKNS_13GCDescriptionEE
libmozjs-24.so:_ZN2JS19CollectRuntimeStatsEP9JSRuntimePNS_12RuntimeStatsEPNS_20ObjectPrivateVisitorE
libmozjs-24.so:_ZN2JS19FinishIncrementalGCEP9JSRuntimeNS_8gcreason6ReasonE
libmozjs-24.so:_ZN2JS19PeakSizeOfTemporaryEPK9JSRuntime
libmozjs-24.so:_ZN2JS20DisableIncrementalGCEP9JSRuntime
libmozjs-24.so:_ZN2JS20FreeStackDescriptionEP9JSContextPNS_16StackDescriptionE
libmozjs-24.so:_ZN2JS20UserCompartmentCountEP9JSRuntime
libmozjs-24.so:_ZN2JS21DisableGenerationalGCEP9JSRuntime
libmozjs-24.so:_ZN2JS22ExtractPerfMeasurementENS_5ValueE
libmozjs-24.so:_ZN2JS22IsIncrementalGCEnabledEP9JSRuntime
libmozjs-24.so:_ZN2JS22SystemCompartmentCountEP9JSRuntime
libmozjs-24.so:_ZN2JS23IncrementalValueBarrierERKNS_5ValueE
libmozjs-24.so:_ZN2JS23PrepareForIncrementalGCEP9JSRuntime
libmozjs-24.so:_ZN2JS23RegisterPerfMeasurementEP9JSContextP8JSObject
libmozjs-24.so:_ZN2JS24IncrementalObjectBarrierEP8JSObject
libmozjs-24.so:_ZN2JS25IsIncrementalGCInProgressEP9JSRuntime
libmozjs-24.so:_ZN2JS26IsIncrementalBarrierNeededEP9JSContext
libmozjs-24.so:_ZN2JS26IsIncrementalBarrierNeededEP9JSRuntime
libmozjs-24.so:_ZN2JS27IncrementalReferenceBarrierEPv13JSGCTraceKind
libmozjs-24.so:_ZN2JS28UnmarkGrayGCThingRecursivelyEPv13JSGCTraceKind
libmozjs-24.so:_ZN2JS4CallEP9JSContextNS_5ValueES2_jPS2_S3_
libmozjs-24.so:_ZN2JS6PokeGCEP9JSRuntime
libmozjs-24.so:_ZN2JS6detail17ToPropertyKeySlowEP9JSContextNS_6HandleINS_5ValueEEEPNS_11PropertyKeyE
libmozjs-24.so:_ZN2JS6detail19CallMethodIfWrappedEP9JSContextPFbRKNS_5ValueEEPFbS2_NS_8CallArgsEES8_
libmozjs-24.so:_ZN2JS7CompileEP9JSContextNS_6HandleIP8JSObjectEENS_14CompileOptionsEP8_IO_FILE
libmozjs-24.so:_ZN2JS7CompileEP9JSContextNS_6HandleIP8JSObjectEENS_14CompileOptionsEPKc
libmozjs-24.so:_ZN2JS7CompileEP9JSContextNS_6HandleIP8JSObjectEENS_14CompileOptionsEPKcm
libmozjs-24.so:_ZN2JS7CompileEP9JSContextNS_6HandleIP8JSObjectEENS_14CompileOptionsEPKtm
libmozjs-24.so:_ZN2JS8EvaluateEP9JSContextNS_6HandleIP8JSObjectEENS_14CompileOptionsEPKcPNS_5ValueE
libmozjs-24.so:_ZN2JS8EvaluateEP9JSContextNS_6HandleIP8JSObjectEENS_14CompileOptionsEPKcmPNS_5ValueE
libmozjs-24.so:_ZN2JS8EvaluateEP9JSContextNS_6HandleIP8JSObjectEENS_14CompileOptionsEPKtmPNS_5ValueE
libmozjs-24.so:_ZN2JS8MakeDateEdjj
libmozjs-24.so:_ZN2js10GetGenericEP9JSContextP8JSObjectS3_lPN2JS5ValueE
libmozjs-24.so:_ZN2js11ToInt32SlowEP9JSContextRKN2JS5ValueEPi
libmozjs-24.so:_ZN2js11ToInt64SlowEP9JSContextRKN2JS5ValueEPl
libmozjs-24.so:_ZN2js12AppendUniqueEP9JSContextRN2JS12AutoIdVectorES4_
libmozjs-24.so:_ZN2js12DefaultValueEP9JSContextN2JS6HandleIP8JSObjectEE6JSTypeNS2_13MutableHandleINS2_5ValueEEE
libmozjs-24.so:_ZN2js12IsCallObjectEP8JSObject
libmozjs-24.so:_ZN2js12IsSystemZoneEPN2JS4ZoneE
libmozjs-24.so:_ZN2js12ToNumberSlowEP9JSContextN2JS5ValueEPd
libmozjs-24.so:_ZN2js12ToUint16SlowEP9JSContextRKN2JS5ValueEPt
libmozjs-24.so:_ZN2js12ToUint32SlowEP9JSContextRKN2JS5ValueEPj
libmozjs-24.so:_ZN2js12ToUint64SlowEP9JSContextRKN2JS5ValueEPm
libmozjs-24.so:_ZN2js13CheckedUnwrapEP8JSObjectb
libmozjs-24.so:_ZN2js13IsScopeObjectEP8JSObject
libmozjs-24.so:_ZN2js13PurgePCCountsEP9JSContext
libmozjs-24.so:_ZN2js13ToBooleanSlowERKN2JS5ValueE
libmozjs-24.so:_ZN2js13TraceWeakMapsEPNS_13WeakMapTracerE
libmozjs-24.so:_ZN2js14NewProxyObjectEP9JSContextPNS_16BaseProxyHandlerEN2JS6HandleINS4_5ValueEEEP8JSObjectS9_NS_13ProxyCallableE
libmozjs-24.so:_ZN2js14ProfilingGetPCEP9JSRuntimeP8JSScriptPv
libmozjs-24.so:_ZN2js15AutoEnterPolicy11reportErrorEP9JSContextl
libmozjs-24.so:_ZN2js15DeadObjectProxy10nativeCallEP9JSContextPFbRKN2JS5ValueEEPFbS2_NS3_8CallArgsEES9_
libmozjs-24.so:_ZN2js15DeadObjectProxy11hasInstanceEP9JSContextN2JS6HandleIP8JSObjectEENS3_13MutableHandleINS3_5ValueEEEPb
libmozjs-24.so:_ZN2js15DeadObjectProxy12defaultValueEP9JSContextN2JS6HandleIP8JSObjectEE6JSTypeNS3_13MutableHandleINS3_5ValueEEE
libmozjs-24.so:_ZN2js15DeadObjectProxy12fun_toStringEP9JSContextN2JS6HandleIP8JSObjectEEj
libmozjs-24.so:_ZN2js15DeadObjectProxy12isExtensibleEP8JSObject
libmozjs-24.so:_ZN2js15DeadObjectProxy13objectClassIsEN2JS6HandleIP8JSObjectEENS_12ESClassValueEP9JSContext
libmozjs-24.so:_ZN2js15DeadObjectProxy14definePropertyEP9JSContextN2JS6HandleIP8JSObjectEENS4_IlEEP20JSPropertyDescriptor
libmozjs-24.so:_ZN2js15DeadObjectProxy14getPrototypeOfEP9JSContextN2JS6HandleIP8JSObjectEENS3_13MutableHandleIS6_EE
libmozjs-24.so:_ZN2js15DeadObjectProxy15regexp_toSharedEP9JSContextN2JS6HandleIP8JSObjectEEPNS_11RegExpGuardE
libmozjs-24.so:_ZN2js15DeadObjectProxy17preventExtensionsEP9JSContextN2JS6HandleIP8JSObjectEE
libmozjs-24.so:_ZN2js15DeadObjectProxy19getElementIfPresentEP9JSContextN2JS6HandleIP8JSObjectEES7_jNS3_13MutableHandleINS3_5ValueEEEPb
libmozjs-24.so:_ZN2js15DeadObjectProxy19getOwnPropertyNamesEP9JSContextN2JS6HandleIP8JSObjectEERNS3_12AutoIdVectorE
libmozjs-24.so:_ZN2js15DeadObjectProxy21getPropertyDescriptorEP9JSContextN2JS6HandleIP8JSObjectEENS4_IlEEP20JSPropertyDescriptorj
libmozjs-24.so:_ZN2js15DeadObjectProxy24getOwnPropertyDescriptorEP9JSContextN2JS6HandleIP8JSObjectEENS4_IlEEP20JSPropertyDescriptorj
libmozjs-24.so:_ZN2js15DeadObjectProxy4callEP9JSContextN2JS6HandleIP8JSObjectEERKNS3_8CallArgsE
libmozjs-24.so:_ZN2js15DeadObjectProxy7delete_EP9JSContextN2JS6HandleIP8JSObjectEENS4_IlEEPb
libmozjs-24.so:_ZN2js15DeadObjectProxy9classNameEP9JSContextN2JS6HandleIP8JSObjectEE
libmozjs-24.so:_ZN2js15DeadObjectProxy9constructEP9JSContextN2JS6HandleIP8JSObjectEERKNS3_8CallArgsE
libmozjs-24.so:_ZN2js15DeadObjectProxy9enumerateEP9JSContextN2JS6HandleIP8JSObjectEERNS3_12AutoIdVectorE
libmozjs-24.so:_ZN2js15DeadObjectProxyC1Ev
libmozjs-24.so:_ZN2js15DeadObjectProxyC2Ev
libmozjs-24.so:_ZN2js15GetDOMCallbacksEP9JSRuntime
libmozjs-24.so:_ZN2js15SetDOMCallbacksEP9JSRuntimePKNS_14JSDOMCallbacksE
libmozjs-24.so:_ZN2js15TempAllocPolicy13onOutOfMemoryEPvm
libmozjs-24.so:_ZN2js15UncheckedUnwrapEP8JSObjectbPj
libmozjs-24.so:_ZN2js16BaseProxyHandler10nativeCallEP9JSContextPFbRKN2JS5ValueEEPFbS2_NS3_8CallArgsEES9_
libmozjs-24.so:_ZN2js16BaseProxyHandler11hasInstanceEP9JSContextN2JS6HandleIP8JSObjectEENS3_13MutableHandleINS3_5ValueEEEPb
libmozjs-24.so:_ZN2js16BaseProxyHandler12defaultValueEP9JSContextN2JS6HandleIP8JSObjectEE6JSTypeNS3_13MutableHandleINS3_5ValueEEE
libmozjs-24.so:_ZN2js16BaseProxyHandler12fun_toStringEP9JSContextN2JS6HandleIP8JSObjectEEj
libmozjs-24.so:_ZN2js16BaseProxyHandler13objectClassIsEN2JS6HandleIP8JSObjectEENS_12ESClassValueEP9JSContext
libmozjs-24.so:_ZN2js16BaseProxyHandler14getPrototypeOfEP9JSContextN2JS6HandleIP8JSObjectEENS3_13MutableHandleIS6_EE
libmozjs-24.so:_ZN2js16BaseProxyHandler15regexp_toSharedEP9JSContextN2JS6HandleIP8JSObjectEEPNS_11RegExpGuardE
libmozjs-24.so:_ZN2js16BaseProxyHandler18weakmapKeyDelegateEP8JSObject
libmozjs-24.so:_ZN2js16BaseProxyHandler19getElementIfPresentEP9JSContextN2JS6HandleIP8JSObjectEES7_jNS3_13MutableHandleINS3_5ValueEEEPb
libmozjs-24.so:_ZN2js16BaseProxyHandler3getEP9JSContextN2JS6HandleIP8JSObjectEES7_NS4_IlEENS3_13MutableHandleINS3_5ValueEEE
libmozjs-24.so:_ZN2js16BaseProxyHandler3hasEP9JSContextN2JS6HandleIP8JSObjectEENS4_IlEEPb
libmozjs-24.so:_ZN2js16BaseProxyHandler3setEP9JSContextN2JS6HandleIP8JSObjectEES7_NS4_IlEEbNS3_13MutableHandleINS3_5ValueEEE
libmozjs-24.so:_ZN2js16BaseProxyHandler4callEP9JSContextN2JS6HandleIP8JSObjectEERKNS3_8CallArgsE
libmozjs-24.so:_ZN2js16BaseProxyHandler4keysEP9JSContextN2JS6HandleIP8JSObjectEERNS3_12AutoIdVectorE
libmozjs-24.so:_ZN2js16BaseProxyHandler5enterEP9JSContextN2JS6HandleIP8JSObjectEENS4_IlEENS0_6ActionEPb
libmozjs-24.so:_ZN2js16BaseProxyHandler6hasOwnEP9JSContextN2JS6HandleIP8JSObjectEENS4_IlEEPb
libmozjs-24.so:_ZN2js16BaseProxyHandler7iterateEP9JSContextN2JS6HandleIP8JSObjectEEjNS3_13MutableHandleINS3_5ValueEEE
libmozjs-24.so:_ZN2js16BaseProxyHandler8finalizeEP8JSFreeOpP8JSObject
libmozjs-24.so:_ZN2js16BaseProxyHandler9classNameEP9JSContextN2JS6HandleIP8JSObjectEE
libmozjs-24.so:_ZN2js16BaseProxyHandler9constructEP9JSContextN2JS6HandleIP8JSObjectEERKNS3_8CallArgsE
libmozjs-24.so:_ZN2js16BaseProxyHandlerC1EPv
libmozjs-24.so:_ZN2js16BaseProxyHandlerC2EPv
libmozjs-24.so:_ZN2js16BaseProxyHandlerD0Ev
libmozjs-24.so:_ZN2js16BaseProxyHandlerD1Ev
libmozjs-24.so:_ZN2js16BaseProxyHandlerD2Ev
libmozjs-24.so:_ZN2js16DumpHeapCompleteEP9JSRuntimeP8_IO_FILE
libmozjs-24.so:_ZN2js16GCThingTraceKindEPv
libmozjs-24.so:_ZN2js16GetErrorTypeNameEP9JSContexts
libmozjs-24.so:_ZN2js16GetPropertyNamesEP9JSContextP8JSObjectjPN2JS12AutoIdVectorE
libmozjs-24.so:_ZN2js16IsFunctionObjectEP8JSObject
libmozjs-24.so:_ZN2js16UnwrapOneCheckedEP8JSObjectb
libmozjs-24.so:_ZN2js16obj_defineGetterEP9JSContextjPN2JS5ValueE
libmozjs-24.so:_ZN2js16obj_defineSetterEP9JSContextjPN2JS5ValueE
libmozjs-24.so:_ZN2js17GetObjectMetadataEP8JSObject
libmozjs-24.so:_ZN2js17GetObjectSlotSpanEP8JSObject
libmozjs-24.so:_ZN2js17HasUnrootedGlobalEPK9JSContext
libmozjs-24.so:_ZN2js17RecomputeWrappersEP9JSContextRKNS_17CompartmentFilterES4_
libmozjs-24.so:_ZN2js17SetObjectMetadataEP9JSContextN2JS6HandleIP8JSObjectEES6_
libmozjs-24.so:_ZN2js18AreGCGrayBitsValidEP9JSRuntime
libmozjs-24.so:_ZN2js18DirectProxyHandler10nativeCallEP9JSContextPFbRKN2JS5ValueEEPFbS2_NS3_8CallArgsEES9_
libmozjs-24.so:_ZN2js18DirectProxyHandler11hasInstanceEP9JSContextN2JS6HandleIP8JSObjectEENS3_13MutableHandleINS3_5ValueEEEPb
libmozjs-24.so:_ZN2js18DirectProxyHandler12defaultValueEP9JSContextN2JS6HandleIP8JSObjectEE6JSTypeNS3_13MutableHandleINS3_5ValueEEE
libmozjs-24.so:_ZN2js18DirectProxyHandler12fun_toStringEP9JSContextN2JS6HandleIP8JSObjectEEj
libmozjs-24.so:_ZN2js18DirectProxyHandler12isExtensibleEP8JSObject
libmozjs-24.so:_ZN2js18DirectProxyHandler13objectClassIsEN2JS6HandleIP8JSObjectEENS_12ESClassValueEP9JSContext
libmozjs-24.so:_ZN2js18DirectProxyHandler14definePropertyEP9JSContextN2JS6HandleIP8JSObjectEENS4_IlEEP20JSPropertyDescriptor
libmozjs-24.so:_ZN2js18DirectProxyHandler15regexp_toSharedEP9JSContextN2JS6HandleIP8JSObjectEEPNS_11RegExpGuardE
libmozjs-24.so:_ZN2js18DirectProxyHandler17preventExtensionsEP9JSContextN2JS6HandleIP8JSObjectEE
libmozjs-24.so:_ZN2js18DirectProxyHandler18weakmapKeyDelegateEP8JSObject
libmozjs-24.so:_ZN2js18DirectProxyHandler19getOwnPropertyNamesEP9JSContextN2JS6HandleIP8JSObjectEERNS3_12AutoIdVectorE
libmozjs-24.so:_ZN2js18DirectProxyHandler21getPropertyDescriptorEP9JSContextN2JS6HandleIP8JSObjectEENS4_IlEEP20JSPropertyDescriptorj
libmozjs-24.so:_ZN2js18DirectProxyHandler24getOwnPropertyDescriptorEP9JSContextN2JS6HandleIP8JSObjectEENS4_IlEEP20JSPropertyDescriptorj
libmozjs-24.so:_ZN2js18DirectProxyHandler3getEP9JSContextN2JS6HandleIP8JSObjectEES7_NS4_IlEENS3_13MutableHandleINS3_5ValueEEE
libmozjs-24.so:_ZN2js18DirectProxyHandler3hasEP9JSContextN2JS6HandleIP8JSObjectEENS4_IlEEPb
libmozjs-24.so:_ZN2js18DirectProxyHandler3setEP9JSContextN2JS6HandleIP8JSObjectEES7_NS4_IlEEbNS3_13MutableHandleINS3_5ValueEEE
libmozjs-24.so:_ZN2js18DirectProxyHandler4callEP9JSContextN2JS6HandleIP8JSObjectEERKNS3_8CallArgsE
libmozjs-24.so:_ZN2js18DirectProxyHandler4keysEP9JSContextN2JS6HandleIP8JSObjectEERNS3_12AutoIdVectorE
libmozjs-24.so:_ZN2js18DirectProxyHandler6hasOwnEP9JSContextN2JS6HandleIP8JSObjectEENS4_IlEEPb
libmozjs-24.so:_ZN2js18DirectProxyHandler7delete_EP9JSContextN2JS6HandleIP8JSObjectEENS4_IlEEPb
libmozjs-24.so:_ZN2js18DirectProxyHandler7iterateEP9JSContextN2JS6HandleIP8JSObjectEEjNS3_13MutableHandleINS3_5ValueEEE
libmozjs-24.so:_ZN2js18DirectProxyHandler9classNameEP9JSContextN2JS6HandleIP8JSObjectEE
libmozjs-24.so:_ZN2js18DirectProxyHandler9constructEP9JSContextN2JS6HandleIP8JSObjectEERKNS3_8CallArgsE
libmozjs-24.so:_ZN2js18DirectProxyHandler9enumerateEP9JSContextN2JS6HandleIP8JSObjectEERNS3_12AutoIdVectorE
libmozjs-24.so:_ZN2js18DirectProxyHandlerC1EPv
libmozjs-24.so:_ZN2js18DirectProxyHandlerC2EPv
libmozjs-24.so:_ZN2js18GetCompartmentZoneEP13JSCompartment
libmozjs-24.so:_ZN2js18IsAtomsCompartmentEP13JSCompartment
libmozjs-24.so:_ZN2js18IsContextRunningJSEP9JSContext
libmozjs-24.so:_ZN2js18IterateGrayObjectsEPN2JS4ZoneEPFvPvS3_ES3_
libmozjs-24.so:_ZN2js18StringIsArrayIndexEP14JSLinearStringPj
libmozjs-24.so:_ZN2js19GetTestingFunctionsEP9JSContext
libmozjs-24.so:_ZN2js19IsSystemCompartmentEP13JSCompartment
libmozjs-24.so:_ZN2js19SetActivityCallbackEP9JSRuntimePFvPviES2_
libmozjs-24.so:_ZN2js20IsReadOnlyDateMethodEPFbRKN2JS5ValueEEPFbP9JSContextNS0_8CallArgsEE
libmozjs-24.so:_ZN2js20StopPCCountProfilingEP9JSContext
libmozjs-24.so:_ZN2js21GetPCCountScriptCountEP9JSContext
libmozjs-24.so:_ZN2js21GetWeakmapKeyDelegateEP8JSObject
libmozjs-24.so:_ZN2js21InitClassWithReservedEP9JSContextP8JSObjectS3_P7JSClassPFiS1_jPN2JS5ValueEEjPK14JSPropertySpecPK14JSFunctionSpecSD_SG_
libmozjs-24.so:_ZN2js21IsTypedArrayThisCheckEPFbRKN2JS5ValueEE
libmozjs-24.so:_ZN2js21StartPCCountProfilingEP9JSContext
libmozjs-24.so:_ZN2js22SetDOMProxyInformationEPvjPFNS_21DOMProxyShadowsResultEP9JSContextN2JS6HandleIP8JSObjectEENS5_IlEEE
libmozjs-24.so:_ZN2js23AutoMaybeTouchDeadZonesC1EP8JSObject
libmozjs-24.so:_ZN2js23AutoMaybeTouchDeadZonesC1EP9JSContext
libmozjs-24.so:_ZN2js23AutoMaybeTouchDeadZonesC2EP8JSObject
libmozjs-24.so:_ZN2js23AutoMaybeTouchDeadZonesC2EP9JSContext
libmozjs-24.so:_ZN2js23AutoMaybeTouchDeadZonesD1Ev
libmozjs-24.so:_ZN2js23AutoMaybeTouchDeadZonesD2Ev
libmozjs-24.so:_ZN2js23CallContextDebugHandlerEP9JSContextP8JSScriptPhPN2JS5ValueE
libmozjs-24.so:_ZN2js23CrossCompartmentWrapper10nativeCallEP9JSContextPFbRKN2JS5ValueEEPFbS2_NS3_8CallArgsEES9_
libmozjs-24.so:_ZN2js23CrossCompartmentWrapper11hasInstanceEP9JSContextN2JS6HandleIP8JSObjectEENS3_13MutableHandleINS3_5ValueEEEPb
libmozjs-24.so:_ZN2js23CrossCompartmentWrapper12defaultValueEP9JSContextN2JS6HandleIP8JSObjectEE6JSTypeNS3_13MutableHandleINS3_5ValueEEE
libmozjs-24.so:_ZN2js23CrossCompartmentWrapper12fun_toStringEP9JSContextN2JS6HandleIP8JSObjectEEj
libmozjs-24.so:_ZN2js23CrossCompartmentWrapper12isExtensibleEP8JSObject
libmozjs-24.so:_ZN2js23CrossCompartmentWrapper14definePropertyEP9JSContextN2JS6HandleIP8JSObjectEENS4_IlEEP20JSPropertyDescriptor
libmozjs-24.so:_ZN2js23CrossCompartmentWrapper14getPrototypeOfEP9JSContextN2JS6HandleIP8JSObjectEENS3_13MutableHandleIS6_EE
libmozjs-24.so:_ZN2js23CrossCompartmentWrapper15regexp_toSharedEP9JSContextN2JS6HandleIP8JSObjectEEPNS_11RegExpGuardE
libmozjs-24.so:_ZN2js23CrossCompartmentWrapper17preventExtensionsEP9JSContextN2JS6HandleIP8JSObjectEE
libmozjs-24.so:_ZN2js23CrossCompartmentWrapper19getOwnPropertyNamesEP9JSContextN2JS6HandleIP8JSObjectEERNS3_12AutoIdVectorE
libmozjs-24.so:_ZN2js23CrossCompartmentWrapper20finalizeInBackgroundEN2JS5ValueE
libmozjs-24.so:_ZN2js23CrossCompartmentWrapper21getPropertyDescriptorEP9JSContextN2JS6HandleIP8JSObjectEENS4_IlEEP20JSPropertyDescriptorj
libmozjs-24.so:_ZN2js23CrossCompartmentWrapper24getOwnPropertyDescriptorEP9JSContextN2JS6HandleIP8JSObjectEENS4_IlEEP20JSPropertyDescriptorj
libmozjs-24.so:_ZN2js23CrossCompartmentWrapper3getEP9JSContextN2JS6HandleIP8JSObjectEES7_NS4_IlEENS3_13MutableHandleINS3_5ValueEEE
libmozjs-24.so:_ZN2js23CrossCompartmentWrapper3hasEP9JSContextN2JS6HandleIP8JSObjectEENS4_IlEEPb
libmozjs-24.so:_ZN2js23CrossCompartmentWrapper3setEP9JSContextN2JS6HandleIP8JSObjectEES7_NS4_IlEEbNS3_13MutableHandleINS3_5ValueEEE
libmozjs-24.so:_ZN2js23CrossCompartmentWrapper4callEP9JSContextN2JS6HandleIP8JSObjectEERKNS3_8CallArgsE
libmozjs-24.so:_ZN2js23CrossCompartmentWrapper4keysEP9JSContextN2JS6HandleIP8JSObjectEERNS3_12AutoIdVectorE
libmozjs-24.so:_ZN2js23CrossCompartmentWrapper6hasOwnEP9JSContextN2JS6HandleIP8JSObjectEENS4_IlEEPb
libmozjs-24.so:_ZN2js23CrossCompartmentWrapper7delete_EP9JSContextN2JS6HandleIP8JSObjectEENS4_IlEEPb
libmozjs-24.so:_ZN2js23CrossCompartmentWrapper7iterateEP9JSContextN2JS6HandleIP8JSObjectEEjNS3_13MutableHandleINS3_5ValueEEE
libmozjs-24.so:_ZN2js23CrossCompartmentWrapper9classNameEP9JSContextN2JS6HandleIP8JSObjectEE
libmozjs-24.so:_ZN2js23CrossCompartmentWrapper9constructEP9JSContextN2JS6HandleIP8JSObjectEERKNS3_8CallArgsE
libmozjs-24.so:_ZN2js23CrossCompartmentWrapper9enumerateEP9JSContextN2JS6HandleIP8JSObjectEERNS3_12AutoIdVectorE
libmozjs-24.so:_ZN2js23CrossCompartmentWrapperC1Ejb
libmozjs-24.so:_ZN2js23CrossCompartmentWrapperC2Ejb
libmozjs-24.so:_ZN2js23CrossCompartmentWrapperD0Ev
libmozjs-24.so:_ZN2js23CrossCompartmentWrapperD1Ev
libmozjs-24.so:_ZN2js23CrossCompartmentWrapperD2Ev
libmozjs-24.so:_ZN2js23GetAnyCompartmentInZoneEPN2JS4ZoneE
libmozjs-24.so:_ZN2js23GetPCCountScriptSummaryEP9JSContextm
libmozjs-24.so:_ZN2js23NewFunctionWithReservedEP9JSContextPFiS1_jPN2JS5ValueEEjjP8JSObjectPKc
libmozjs-24.so:_ZN2js23NotifyAnimationActivityEP8JSObject
libmozjs-24.so:_ZN2js23VisitGrayWrapperTargetsEPN2JS4ZoneEPFvPvS3_ES3_
libmozjs-24.so:_ZN2js24GetPCCountScriptContentsEP9JSContextm
libmozjs-24.so:_ZN2js24IsInNonStrictPropertySetEP9JSContext
libmozjs-24.so:_ZN2js24IsOriginalScriptFunctionEP10JSFunction
libmozjs-24.so:_ZN2js24SetAnalysisPurgeCallbackEP9JSRuntimePFvS1_N2JS6HandleIP12JSFlatStringEEE
libmozjs-24.so:_ZN2js24SetRuntimeProfilingStackEP9JSRuntimePNS_12ProfileEntryEPjj
libmozjs-24.so:_ZN2js25GetFunctionNativeReservedEP8JSObjectm
libmozjs-24.so:_ZN2js25GetObjectParentMaybeScopeEP8JSObject
libmozjs-24.so:_ZN2js25IsCrossCompartmentWrapperEP8JSObject
libmozjs-24.so:_ZN2js25RemapAllWrappersForObjectEP9JSContextP8JSObjectS3_
libmozjs-24.so:_ZN2js25SetCTypesActivityCallbackEP9JSRuntimePFvP9JSContextNS_18CTypesActivityTypeEE
libmozjs-24.so:_ZN2js25SetFunctionNativeReservedEP8JSObjectmRKN2JS5ValueE
libmozjs-24.so:_ZN2js25SetObjectMetadataCallbackEP9JSContextPFP8JSObjectS1_E
libmozjs-24.so:_ZN2js26AutoCTypesActivityCallbackC1EP9JSContextNS_18CTypesActivityTypeES3_
libmozjs-24.so:_ZN2js26AutoCTypesActivityCallbackC2EP9JSContextNS_18CTypesActivityTypeES3_
libmozjs-24.so:_ZN2js26CanCallContextDebugHandlerEP9JSContext
libmozjs-24.so:_ZN2js26DefineFunctionWithReservedEP9JSContextP8JSObjectPKcPFiS1_jPN2JS5ValueEEjj
libmozjs-24.so:_ZN2js26GetDefaultGlobalForContextEP9JSContext
libmozjs-24.so:_ZN2js26SetPreserveWrapperCallbackEP9JSRuntimePFbP9JSContextP8JSObjectE
libmozjs-24.so:_ZN2js26SetReservedSlotWithBarrierEP8JSObjectmRKN2JS5ValueE
libmozjs-24.so:_ZN2js27EnableRuntimeProfilingStackEP9JSRuntimeb
libmozjs-24.so:_ZN2js27NewFunctionByIdWithReservedEP9JSContextPFiS1_jPN2JS5ValueEEjjP8JSObjectl
libmozjs-24.so:_ZN2js28IsObjectInContextCompartmentEP8JSObjectPK9JSContext
libmozjs-24.so:_ZN2js28NukeCrossCompartmentWrappersEP9JSContextRKNS_17CompartmentFilterES4_NS_22NukeReferencesToWindowE
libmozjs-24.so:_ZN2js31ReportIfUndeclaredVarAssignmentEP9JSContextN2JS6HandleIP8JSStringEE
libmozjs-24.so:_ZN2js32MemoryReportingSundriesThresholdEv
libmozjs-24.so:_ZN2js34GetContextStructuredCloneCallbacksEP9JSContext
libmozjs-24.so:_ZN2js34GetGlobalForObjectCrossCompartmentEP8JSObject
libmozjs-24.so:_ZN2js45GetOutermostEnclosingFunctionOfScriptedCallerEP9JSContext
libmozjs-24.so:_ZN2js7Wrapper13wrappedObjectEP8JSObject
libmozjs-24.so:_ZN2js7Wrapper14wrapperHandlerEP8JSObject
libmozjs-24.so:_ZN2js7Wrapper16getWrapperFamilyEv
libmozjs-24.so:_ZN2js7Wrapper3NewEP9JSContextP8JSObjectS4_S4_PS0_
libmozjs-24.so:_ZN2js7Wrapper5RenewEP9JSContextP8JSObjectS4_PS0_
libmozjs-24.so:_ZN2js7WrapperC1Ejb
libmozjs-24.so:_ZN2js7WrapperC2Ejb
libmozjs-24.so:_ZN2js7WrapperD0Ev
libmozjs-24.so:_ZN2js7WrapperD1Ev
libmozjs-24.so:_ZN2js7WrapperD2Ev
libmozjs-24.so:_ZN7WebCore7Decimal10fromDoubleEd
libmozjs-24.so:_ZN7WebCore7Decimal10fromStringERKNSt7__cxx1112basic_stringIcSt11char_traitsIcESaIcEEE
libmozjs-24.so:_ZN7WebCore7Decimal13alignOperandsERKS0_S2_
libmozjs-24.so:_ZN7WebCore7Decimal3nanEv
libmozjs-24.so:_ZN7WebCore7Decimal4zeroENS0_4SignE
libmozjs-24.so:_ZN7WebCore7Decimal8infinityENS0_4SignE
libmozjs-24.so:_ZN7WebCore7DecimalC1ENS0_4SignEim
libmozjs-24.so:_ZN7WebCore7DecimalC1ERKNS0_11EncodedDataE
libmozjs-24.so:_ZN7WebCore7DecimalC1ERKS0_
libmozjs-24.so:_ZN7WebCore7DecimalC1Ei
libmozjs-24.so:_ZN7WebCore7DecimalC2ENS0_4SignEim
libmozjs-24.so:_ZN7WebCore7DecimalC2ERKNS0_11EncodedDataE
libmozjs-24.so:_ZN7WebCore7DecimalC2ERKS0_
libmozjs-24.so:_ZN7WebCore7DecimalC2Ei
libmozjs-24.so:_ZN7WebCore7DecimalaSERKS0_
libmozjs-24.so:_ZN7WebCore7DecimaldVERKS0_
libmozjs-24.so:_ZN7WebCore7DecimalmIERKS0_
libmozjs-24.so:_ZN7WebCore7DecimalmLERKS0_
libmozjs-24.so:_ZN7WebCore7DecimalpLERKS0_
libmozjs-24.so:_ZN7mozilla7SHA1Sum6finishERA20_h
libmozjs-24.so:_ZN7mozilla7SHA1Sum6updateEPKvj
libmozjs-24.so:_ZN7mozilla7SHA1SumC1Ev
libmozjs-24.so:_ZN7mozilla7SHA1SumC2Ev
libmozjs-24.so:_ZN7mozilla9HashBytesEPKvm
libmozjs-24.so:_ZN9JSRuntime13onOutOfMemoryEPvm
libmozjs-24.so:_ZN9JSRuntime13onOutOfMemoryEPvmP9JSContext
libmozjs-24.so:_ZN9JSRuntime15onTooMuchMallocEv
libmozjs-24.so:_ZNK17double_conversion23DoubleToStringConverter11ToPrecisionEdiPNS_13StringBuilderE
libmozjs-24.so:_ZNK17double_conversion23DoubleToStringConverter13ToExponentialEdiPNS_13StringBuilderE
libmozjs-24.so:_ZNK17double_conversion23DoubleToStringConverter19HandleSpecialValuesEdPNS_13StringBuilderE
libmozjs-24.so:_ZNK17double_conversion23DoubleToStringConverter20ToShortestIeeeNumberEdPNS_13StringBuilderENS0_8DtoaModeE
libmozjs-24.so:_ZNK17double_conversion23DoubleToStringConverter27CreateDecimalRepresentationEPKciiiPNS_13StringBuilderE
libmozjs-24.so:_ZNK17double_conversion23DoubleToStringConverter31CreateExponentialRepresentationEPKciiPNS_13StringBuilderE
libmozjs-24.so:_ZNK17double_conversion23DoubleToStringConverter7ToFixedEdiPNS_13StringBuilderE
libmozjs-24.so:_ZNK21JSBrokenFrameIterator14isConstructingEv
libmozjs-24.so:_ZNK21JSBrokenFrameIterator16abstractFramePtrEv
libmozjs-24.so:_ZNK21JSBrokenFrameIterator2pcEv
libmozjs-24.so:_ZNK21JSBrokenFrameIterator4doneEv
libmozjs-24.so:_ZNK2JS13GCDescription10formatJSONEP9JSRuntimem
libmozjs-24.so:_ZNK2JS13GCDescription13formatMessageEP9JSRuntime
libmozjs-24.so:_ZNK2js15TempAllocPolicy19reportAllocOverflowEv
libmozjs-24.so:_ZNK7WebCore7Decimal3absEv
libmozjs-24.so:_ZNK7WebCore7Decimal5floorEv
libmozjs-24.so:_ZNK7WebCore7Decimal5roundEv
libmozjs-24.so:_ZNK7WebCore7Decimal7ceilingEv
libmozjs-24.so:_ZNK7WebCore7Decimal8toDoubleEv
libmozjs-24.so:_ZNK7WebCore7Decimal8toStringB5cxx11Ev
libmozjs-24.so:_ZNK7WebCore7Decimal8toStringEPcm
libmozjs-24.so:_ZNK7WebCore7Decimal9compareToERKS0_
libmozjs-24.so:_ZNK7WebCore7Decimal9remainderERKS0_
libmozjs-24.so:_ZNK7WebCore7DecimaldvERKS0_
libmozjs-24.so:_ZNK7WebCore7DecimaleqERKS0_
libmozjs-24.so:_ZNK7WebCore7DecimalgeERKS0_
libmozjs-24.so:_ZNK7WebCore7DecimalgtERKS0_
libmozjs-24.so:_ZNK7WebCore7DecimalleERKS0_
libmozjs-24.so:_ZNK7WebCore7DecimalltERKS0_
libmozjs-24.so:_ZNK7WebCore7DecimalmiERKS0_
libmozjs-24.so:_ZNK7WebCore7DecimalmlERKS0_
libmozjs-24.so:_ZNK7WebCore7DecimalneERKS0_
libmozjs-24.so:_ZNK7WebCore7DecimalngEv
libmozjs-24.so:_ZNK7WebCore7DecimalplERKS0_
libmozjs-24.so:_ZNK9JSContext19sizeOfIncludingThisEPFmPKvE
libmozjs-24.so:_ZNV2js12ProfileEntry2pcEv
libmozjs-24.so:_ZNV2js12ProfileEntry5setPCEPh
libmozjs-24.so:mozPoisonValueInit
libmozjs-24.so:mozjs_24
